///////////////////////////////////////////////////////////////////////////////
//
// IAR C/C++ Compiler V9.30.3.3983 for 8051               03/May/2017  09:23:46
// Copyright 2004-2016 IAR Systems AB.
// Evaluation license - IAR Embedded Workbench for 8051, Evaluation version 9.30
//
//    Core               =  plain
//    Code model         =  banked
//    Data model         =  large
//    Calling convention =  xdata reentrant
//    Constant location  =  data_rom
//    Dptr setup         =  1,16
//                          
//    Source file        =  
//        C:\Users\ljuic\Desktop\New
//        folder\ZigBeeCoordinator\Projects\zstack\Samples\GenericApp\Source\GenericApp.c
//    Command line       =  
//        -f "C:\Users\ljuic\Desktop\New
//        folder\ZigBeeCoordinator\Projects\zstack\Samples\GenericApp\CC2530DB\..\..\..\Tools\CC2530DB\f8wCoord.cfg"
//        (-DCPU32MHZ -DROOT=__near_func -DMAC_CFG_APP_PENDING_QUEUE=TRUE
//        -DMAC_CFG_TX_DATA_MAX=5 -DMAC_CFG_TX_MAX=8 -DMAC_CFG_RX_MAX=5
//        -DZDO_COORDINATOR -DRTR_NWK) -f "C:\Users\ljuic\Desktop\New
//        folder\ZigBeeCoordinator\Projects\zstack\Samples\GenericApp\CC2530DB\..\..\..\Tools\CC2530DB\f8wConfig.cfg"
//        (-DZIGBEEPRO -DSECURE=1 -DZG_SECURE_DYNAMIC=0 -DREFLECTOR
//        -DDEFAULT_CHANLIST=0x00000800 -DZDAPP_CONFIG_PAN_ID=0x0422
//        -DNWK_START_DELAY=100 -DEXTENDED_JOINING_RANDOM_MASK=0x007F
//        -DBEACON_REQUEST_DELAY=100 -DBEACON_REQ_DELAY_MASK=0x00FF
//        -DLINK_STATUS_JITTER_MASK=0x007F -DROUTE_EXPIRY_TIME=30
//        -DAPSC_ACK_WAIT_DURATION_POLLED=3000 -DNWK_INDIRECT_MSG_TIMEOUT=7
//        -DMAX_RREQ_ENTRIES=8 -DAPSC_MAX_FRAME_RETRIES=3
//        -DNWK_MAX_DATA_RETRIES=2 -DMAX_POLL_FAILURE_RETRIES=2 -DMAX_BCAST=9
//        -DAPS_MAX_GROUPS=16 -DMAX_RTG_ENTRIES=40 -DNWK_MAX_BINDING_ENTRIES=4
//        -DMAX_BINDING_CLUSTER_IDS=4 "-DDEFAULT_KEY={0x01, 0x03, 0x05, 0x07,
//        0x09, 0x0B, 0x0D, 0x0F, 0x00, 0x02, 0x04, 0x06, 0x08, 0x0A, 0x0C,
//        0x0D}" -DMAC_MAX_FRAME_SIZE=116 -DZDNWKMGR_MIN_TRANSMISSIONS=20
//        "-DCONST=const __code" -DGENERIC=__generic -DRFD_RCVC_ALWAYS_ON=FALSE
//        -DPOLL_RATE=1000 -DQUEUED_POLL_RATE=100 -DRESPONSE_POLL_RATE=100)
//        -DREJOIN_POLL_RATE=440 "C:\Users\ljuic\Desktop\New
//        folder\ZigBeeCoordinator\Projects\zstack\Samples\GenericApp\Source\GenericApp.c"
//        -D ZTOOL_P1 -D MT_TASK -D MT_SYS_FUNC -D MT_ZDO_FUNC -D
//        LCD_SUPPORTED=DEBUG -lC "C:\Users\ljuic\Desktop\New
//        folder\ZigBeeCoordinator\Projects\zstack\Samples\GenericApp\CC2530DB\CoordinatorEB\List"
//        -lA "C:\Users\ljuic\Desktop\New
//        folder\ZigBeeCoordinator\Projects\zstack\Samples\GenericApp\CC2530DB\CoordinatorEB\List"
//        --diag_suppress Pe001,Pa010 -o "C:\Users\ljuic\Desktop\New
//        folder\ZigBeeCoordinator\Projects\zstack\Samples\GenericApp\CC2530DB\CoordinatorEB\Obj"
//        -e --no_code_motion --debug --core=plain --dptr=16,1
//        --data_model=large --code_model=banked
//        --calling_convention=xdata_reentrant --place_constants=data_rom
//        --nr_virtual_regs 16 -I "C:\Users\ljuic\Desktop\New
//        folder\ZigBeeCoordinator\Projects\zstack\Samples\GenericApp\CC2530DB\"
//        -I "C:\Users\ljuic\Desktop\New
//        folder\ZigBeeCoordinator\Projects\zstack\Samples\GenericApp\CC2530DB\..\Source\"
//        -I "C:\Users\ljuic\Desktop\New
//        folder\ZigBeeCoordinator\Projects\zstack\Samples\GenericApp\CC2530DB\..\..\..\ZMain\TI2530DB\"
//        -I "C:\Users\ljuic\Desktop\New
//        folder\ZigBeeCoordinator\Projects\zstack\Samples\GenericApp\CC2530DB\..\..\..\..\..\Components\hal\include\"
//        -I "C:\Users\ljuic\Desktop\New
//        folder\ZigBeeCoordinator\Projects\zstack\Samples\GenericApp\CC2530DB\..\..\..\..\..\Components\hal\target\CC2530EB\"
//        -I "C:\Users\ljuic\Desktop\New
//        folder\ZigBeeCoordinator\Projects\zstack\Samples\GenericApp\CC2530DB\..\..\..\..\..\Components\mac\include\"
//        -I "C:\Users\ljuic\Desktop\New
//        folder\ZigBeeCoordinator\Projects\zstack\Samples\GenericApp\CC2530DB\..\..\..\..\..\Components\mac\high_level\"
//        -I "C:\Users\ljuic\Desktop\New
//        folder\ZigBeeCoordinator\Projects\zstack\Samples\GenericApp\CC2530DB\..\..\..\..\..\Components\mac\low_level\srf04\"
//        -I "C:\Users\ljuic\Desktop\New
//        folder\ZigBeeCoordinator\Projects\zstack\Samples\GenericApp\CC2530DB\..\..\..\..\..\Components\mac\low_level\srf04\single_chip\"
//        -I "C:\Users\ljuic\Desktop\New
//        folder\ZigBeeCoordinator\Projects\zstack\Samples\GenericApp\CC2530DB\..\..\..\..\..\Components\mt\"
//        -I "C:\Users\ljuic\Desktop\New
//        folder\ZigBeeCoordinator\Projects\zstack\Samples\GenericApp\CC2530DB\..\..\..\..\..\Components\osal\include\"
//        -I "C:\Users\ljuic\Desktop\New
//        folder\ZigBeeCoordinator\Projects\zstack\Samples\GenericApp\CC2530DB\..\..\..\..\..\Components\services\saddr\"
//        -I "C:\Users\ljuic\Desktop\New
//        folder\ZigBeeCoordinator\Projects\zstack\Samples\GenericApp\CC2530DB\..\..\..\..\..\Components\services\sdata\"
//        -I "C:\Users\ljuic\Desktop\New
//        folder\ZigBeeCoordinator\Projects\zstack\Samples\GenericApp\CC2530DB\..\..\..\..\..\Components\stack\af\"
//        -I "C:\Users\ljuic\Desktop\New
//        folder\ZigBeeCoordinator\Projects\zstack\Samples\GenericApp\CC2530DB\..\..\..\..\..\Components\stack\nwk\"
//        -I "C:\Users\ljuic\Desktop\New
//        folder\ZigBeeCoordinator\Projects\zstack\Samples\GenericApp\CC2530DB\..\..\..\..\..\Components\stack\sapi\"
//        -I "C:\Users\ljuic\Desktop\New
//        folder\ZigBeeCoordinator\Projects\zstack\Samples\GenericApp\CC2530DB\..\..\..\..\..\Components\stack\sec\"
//        -I "C:\Users\ljuic\Desktop\New
//        folder\ZigBeeCoordinator\Projects\zstack\Samples\GenericApp\CC2530DB\..\..\..\..\..\Components\stack\sys\"
//        -I "C:\Users\ljuic\Desktop\New
//        folder\ZigBeeCoordinator\Projects\zstack\Samples\GenericApp\CC2530DB\..\..\..\..\..\Components\stack\zdo\"
//        -I "C:\Users\ljuic\Desktop\New
//        folder\ZigBeeCoordinator\Projects\zstack\Samples\GenericApp\CC2530DB\..\..\..\..\..\Components\zmac\"
//        -I "C:\Users\ljuic\Desktop\New
//        folder\ZigBeeCoordinator\Projects\zstack\Samples\GenericApp\CC2530DB\..\..\..\..\..\Components\zmac\f8w\"
//        -I "C:\Users\ljuic\Desktop\New
//        folder\ZigBeeCoordinator\Projects\zstack\Samples\GenericApp\CC2530DB\..\..\..\..\..\Components\dll\"
//        -Ohz --require_prototypes
//    List file          =  
//        C:\Users\ljuic\Desktop\New
//        folder\ZigBeeCoordinator\Projects\zstack\Samples\GenericApp\CC2530DB\CoordinatorEB\List\GenericApp.s51
//
///////////////////////////////////////////////////////////////////////////////

        NAME GenericApp

        RTMODEL "__SystemLibrary", "CLib"
        RTMODEL "__calling_convention", "xdata_reentrant"
        RTMODEL "__code_model", "banked"
        RTMODEL "__core", "plain"
        RTMODEL "__data_model", "large"
        RTMODEL "__dptr_size", "16"
        RTMODEL "__extended_stack", "disabled"
        RTMODEL "__location_for_constants", "data"
        RTMODEL "__number_of_dptrs", "1"
        RTMODEL "__rt_version", "1"

        RSEG DOVERLAY:DATA:NOROOT(0)
        RSEG IOVERLAY:IDATA:NOROOT(0)
        RSEG ISTACK:IDATA:NOROOT(0)
        RSEG PSTACK:XDATA:NOROOT(0)
        RSEG XSTACK:XDATA:NOROOT(0)

        EXTERN ?V0
        EXTERN ?V1
        EXTERN ?V2
        EXTERN ?V3
        EXTERN ?V4
        EXTERN ?V5
        EXTERN ?V6
        EXTERN ?V7
        EXTERN ?ADD_XSTACK_DISP0_16
        EXTERN ?BANKED_ENTER_XDATA
        EXTERN ?BANKED_LEAVE_XDATA
        EXTERN ?BDISPATCH
        EXTERN ?DEALLOC_XSTACK8
        EXTERN ?PUSH_XSTACK8_X
        EXTERN ?PUSH_XSTACK8_X_FOUR
        EXTERN ?PUSH_XSTACK_I_ONE
        EXTERN ?PUSH_XSTACK_I_TWO
        EXTERN ?UL_SHR
        EXTERN ?US_SWITCH_SPARSE
        EXTERN ?XSP
        EXTERN ?XSTACK_DISP0_8
        EXTERN ?XSTACK_DISP101_8
        EXTERN ?XSTORE_R0123
        EXTERN __INIT_XDATA_I
        EXTERN __INIT_XDATA_Z

        PUBLIC `??GenericApp_Init::?relay`
        FUNCTION `??GenericApp_Init::?relay`,0203H
        PUBLIC `??GenericApp_ProcessEvent::?relay`
        FUNCTION `??GenericApp_ProcessEvent::?relay`,0203H
        PUBLIC GenericApp_ClusterList
        PUBLIC GenericApp_DstAddr
        PUBLIC GenericApp_DstAddress
        PUBLIC GenericApp_Init
        FUNCTION GenericApp_Init,021203H
        ARGFRAME XSTACK, 0, STACK
        LOCFRAME XSTACK, 9, STACK
        PUBLIC GenericApp_NwkState
        PUBLIC GenericApp_ProcessEvent
        FUNCTION GenericApp_ProcessEvent,0a1203H
        ARGFRAME XSTACK, 0, STACK
        LOCFRAME ISTACK, 1, STACK
        LOCFRAME XSTACK, 291, STACK
        PUBLIC GenericApp_SimpleDesc
        PUBLIC GenericApp_TaskID
        PUBLIC GenericApp_TransID
        PUBLIC GenericApp_epDesc
        PUBLIC SAddr
        PUBWEAK __Constant_3e8
        PUBLIC brojac
        PUBLIC buff
        PUBLIC cMain
        PUBLIC coin
        PUBLIC counter
        PUBLIC dataBuffer
        PUBLIC dataRdy
        PUBLIC index
        PUBLIC keyPressSW4
        PUBLIC lutData
        PUBLIC prevData
        PUBLIC rxBuffer
        PUBLIC shortAddressOfEndDevice
        PUBLIC uartConfig
        
          CFI Names cfiNames0
          CFI StackFrame CFA_SP SP IDATA
          CFI StackFrame CFA_PSP16 PSP16 XDATA
          CFI StackFrame CFA_XSP16 XSP16 XDATA
          CFI StaticOverlayFrame CFA_IOVERLAY IOVERLAY
          CFI StaticOverlayFrame CFA_DOVERLAY DOVERLAY
          CFI Resource `PSW.CY`:1, `B.BR0`:1, `B.BR1`:1, `B.BR2`:1, `B.BR3`:1
          CFI Resource `B.BR4`:1, `B.BR5`:1, `B.BR6`:1, `B.BR7`:1, `VB.BR8`:1
          CFI Resource `VB.BR9`:1, `VB.BR10`:1, `VB.BR11`:1, `VB.BR12`:1
          CFI Resource `VB.BR13`:1, `VB.BR14`:1, `VB.BR15`:1, VB:8, B:8, A:8
          CFI Resource PSW:8, DPL0:8, DPH0:8, R0:8, R1:8, R2:8, R3:8, R4:8, R5:8
          CFI Resource R6:8, R7:8, V0:8, V1:8, V2:8, V3:8, V4:8, V5:8, V6:8, V7:8
          CFI Resource V8:8, V9:8, V10:8, V11:8, V12:8, V13:8, V14:8, V15:8, SP:8
          CFI Resource PSPH:8, PSPL:8, PSP16:16, XSPH:8, XSPL:8, XSP16:16
          CFI VirtualResource ?RET:24
          CFI Resource ?BRET_EXT:8
          CFI VirtualResource ?RET_HIGH:8, ?RET_LOW:8
          CFI ResourceParts PSP16 PSPH, PSPL
          CFI ResourceParts XSP16 XSPH, XSPL
          CFI ResourceParts ?RET ?BRET_EXT, ?RET_HIGH, ?RET_LOW
          CFI EndNames cfiNames0
        
          CFI Common cfiCommon0 Using cfiNames0
          CFI CodeAlign 1
          CFI DataAlign -1
          CFI ReturnAddress ?RET CODE
          CFI CFA_DOVERLAY Used
          CFI CFA_IOVERLAY Used
          CFI CFA_SP SP+-3
          CFI CFA_PSP16 PSP16+0
          CFI CFA_XSP16 XSP16+0
          CFI `PSW.CY` SameValue
          CFI `B.BR0` SameValue
          CFI `B.BR1` SameValue
          CFI `B.BR2` SameValue
          CFI `B.BR3` SameValue
          CFI `B.BR4` SameValue
          CFI `B.BR5` SameValue
          CFI `B.BR6` SameValue
          CFI `B.BR7` SameValue
          CFI `VB.BR8` SameValue
          CFI `VB.BR9` SameValue
          CFI `VB.BR10` SameValue
          CFI `VB.BR11` SameValue
          CFI `VB.BR12` SameValue
          CFI `VB.BR13` SameValue
          CFI `VB.BR14` SameValue
          CFI `VB.BR15` SameValue
          CFI VB SameValue
          CFI B Undefined
          CFI A Undefined
          CFI PSW SameValue
          CFI DPL0 SameValue
          CFI DPH0 SameValue
          CFI R0 Undefined
          CFI R1 Undefined
          CFI R2 Undefined
          CFI R3 Undefined
          CFI R4 Undefined
          CFI R5 Undefined
          CFI R6 SameValue
          CFI R7 SameValue
          CFI V0 SameValue
          CFI V1 SameValue
          CFI V2 SameValue
          CFI V3 SameValue
          CFI V4 SameValue
          CFI V5 SameValue
          CFI V6 SameValue
          CFI V7 SameValue
          CFI V8 SameValue
          CFI V9 SameValue
          CFI V10 SameValue
          CFI V11 SameValue
          CFI V12 SameValue
          CFI V13 SameValue
          CFI V14 SameValue
          CFI V15 SameValue
          CFI PSPH Undefined
          CFI PSPL Undefined
          CFI XSPH Undefined
          CFI XSPL Undefined
          CFI ?RET Concat
          CFI ?BRET_EXT Frame(CFA_SP, 3)
          CFI ?RET_HIGH Frame(CFA_SP, 2)
          CFI ?RET_LOW Frame(CFA_SP, 1)
          CFI EndCommon cfiCommon0
        
        
          CFI Common cfiCommon1 Using cfiNames0
          CFI CodeAlign 1
          CFI DataAlign -1
          CFI ReturnAddress ?RET CODE
          CFI CFA_DOVERLAY Used
          CFI CFA_IOVERLAY Used
          CFI CFA_SP SP+-2
          CFI CFA_PSP16 PSP16+0
          CFI CFA_XSP16 XSP16+0
          CFI `PSW.CY` SameValue
          CFI `B.BR0` SameValue
          CFI `B.BR1` SameValue
          CFI `B.BR2` SameValue
          CFI `B.BR3` SameValue
          CFI `B.BR4` SameValue
          CFI `B.BR5` SameValue
          CFI `B.BR6` SameValue
          CFI `B.BR7` SameValue
          CFI `VB.BR8` SameValue
          CFI `VB.BR9` SameValue
          CFI `VB.BR10` SameValue
          CFI `VB.BR11` SameValue
          CFI `VB.BR12` SameValue
          CFI `VB.BR13` SameValue
          CFI `VB.BR14` SameValue
          CFI `VB.BR15` SameValue
          CFI VB SameValue
          CFI B SameValue
          CFI A SameValue
          CFI PSW SameValue
          CFI DPL0 SameValue
          CFI DPH0 SameValue
          CFI R0 SameValue
          CFI R1 SameValue
          CFI R2 SameValue
          CFI R3 SameValue
          CFI R4 SameValue
          CFI R5 SameValue
          CFI R6 SameValue
          CFI R7 SameValue
          CFI V0 SameValue
          CFI V1 SameValue
          CFI V2 SameValue
          CFI V3 SameValue
          CFI V4 SameValue
          CFI V5 SameValue
          CFI V6 SameValue
          CFI V7 SameValue
          CFI V8 SameValue
          CFI V9 SameValue
          CFI V10 SameValue
          CFI V11 SameValue
          CFI V12 SameValue
          CFI V13 SameValue
          CFI V14 SameValue
          CFI V15 SameValue
          CFI PSPH Undefined
          CFI PSPL Undefined
          CFI XSPH Undefined
          CFI XSPL Undefined
          CFI ?RET Concat
          CFI ?BRET_EXT SameValue
          CFI ?RET_HIGH Frame(CFA_SP, 2)
          CFI ?RET_LOW Frame(CFA_SP, 1)
          CFI EndCommon cfiCommon1
        
AF_DataRequest      SYMBOL "AF_DataRequest"
`??AF_DataRequest::?relay` SYMBOL "?relay", AF_DataRequest
HalLcdWriteString   SYMBOL "HalLcdWriteString"
`??HalLcdWriteString::?relay` SYMBOL "?relay", HalLcdWriteString
HalLedSet           SYMBOL "HalLedSet"
`??HalLedSet::?relay` SYMBOL "?relay", HalLedSet
RegisterForKeys     SYMBOL "RegisterForKeys"
`??RegisterForKeys::?relay` SYMBOL "?relay", RegisterForKeys
ZDO_ParseEPListRsp  SYMBOL "ZDO_ParseEPListRsp"
`??ZDO_ParseEPListRsp::?relay` SYMBOL "?relay", ZDO_ParseEPListRsp
ZDO_RegisterForZDOMsg SYMBOL "ZDO_RegisterForZDOMsg"
`??ZDO_RegisterForZDOMsg::?relay` SYMBOL "?relay", ZDO_RegisterForZDOMsg
ZDP_EndDeviceBindReq SYMBOL "ZDP_EndDeviceBindReq"
`??ZDP_EndDeviceBindReq::?relay` SYMBOL "?relay", ZDP_EndDeviceBindReq
afRegister          SYMBOL "afRegister"
`??afRegister::?relay` SYMBOL "?relay", afRegister
circularInit        SYMBOL "circularInit"
`??circularInit::?relay` SYMBOL "?relay", circularInit
circularPut         SYMBOL "circularPut"
`??circularPut::?relay` SYMBOL "?relay", circularPut
dllInit             SYMBOL "dllInit"
`??dllInit::?relay` SYMBOL "?relay", dllInit
getCmd              SYMBOL "getCmd"
`??getCmd::?relay`  SYMBOL "?relay", getCmd
getDataFromPkt      SYMBOL "getDataFromPkt"
`??getDataFromPkt::?relay` SYMBOL "?relay", getDataFromPkt
getIDFromPkt        SYMBOL "getIDFromPkt"
`??getIDFromPkt::?relay` SYMBOL "?relay", getIDFromPkt
lookForAddr         SYMBOL "lookForAddr"
`??lookForAddr::?relay` SYMBOL "?relay", lookForAddr
lookUpInit          SYMBOL "lookUpInit"
`??lookUpInit::?relay` SYMBOL "?relay", lookUpInit
osal_mem_free       SYMBOL "osal_mem_free"
`??osal_mem_free::?relay` SYMBOL "?relay", osal_mem_free
osal_msg_deallocate SYMBOL "osal_msg_deallocate"
`??osal_msg_deallocate::?relay` SYMBOL "?relay", osal_msg_deallocate
osal_msg_receive    SYMBOL "osal_msg_receive"
`??osal_msg_receive::?relay` SYMBOL "?relay", osal_msg_receive
osal_set_event      SYMBOL "osal_set_event"
`??osal_set_event::?relay` SYMBOL "?relay", osal_set_event
osal_start_timerEx  SYMBOL "osal_start_timerEx"
`??osal_start_timerEx::?relay` SYMBOL "?relay", osal_start_timerEx
osal_strlen         SYMBOL "osal_strlen"
`??osal_strlen::?relay` SYMBOL "?relay", osal_strlen
processFrameRx      SYMBOL "processFrameRx"
`??processFrameRx::?relay` SYMBOL "?relay", processFrameRx
sendDataToPC        SYMBOL "sendDataToPC"
`??sendDataToPC::?relay` SYMBOL "?relay", sendDataToPC
updateLookUpTable   SYMBOL "updateLookUpTable"
`??updateLookUpTable::?relay` SYMBOL "?relay", updateLookUpTable
GenericApp_Init     SYMBOL "GenericApp_Init"
`??GenericApp_Init::?relay` SYMBOL "?relay", GenericApp_Init
GenericApp_ProcessEvent SYMBOL "GenericApp_ProcessEvent"
`??GenericApp_ProcessEvent::?relay` SYMBOL "?relay", GenericApp_ProcessEvent

        EXTERN `??AF_DataRequest::?relay`
        FUNCTION `??AF_DataRequest::?relay`,00H
        EXTERN `??HalLcdWriteString::?relay`
        FUNCTION `??HalLcdWriteString::?relay`,00H
        EXTERN `??HalLedSet::?relay`
        FUNCTION `??HalLedSet::?relay`,00H
        EXTERN `??RegisterForKeys::?relay`
        FUNCTION `??RegisterForKeys::?relay`,00H
        EXTERN `??ZDO_ParseEPListRsp::?relay`
        FUNCTION `??ZDO_ParseEPListRsp::?relay`,00H
        EXTERN `??ZDO_RegisterForZDOMsg::?relay`
        FUNCTION `??ZDO_RegisterForZDOMsg::?relay`,00H
        EXTERN `??ZDP_EndDeviceBindReq::?relay`
        FUNCTION `??ZDP_EndDeviceBindReq::?relay`,00H
        EXTERN `??afRegister::?relay`
        FUNCTION `??afRegister::?relay`,00H
        EXTERN `??circularInit::?relay`
        FUNCTION `??circularInit::?relay`,00H
        EXTERN `??circularPut::?relay`
        FUNCTION `??circularPut::?relay`,00H
        EXTERN `??dllInit::?relay`
        FUNCTION `??dllInit::?relay`,00H
        EXTERN `??getCmd::?relay`
        FUNCTION `??getCmd::?relay`,00H
        EXTERN `??getDataFromPkt::?relay`
        FUNCTION `??getDataFromPkt::?relay`,00H
        EXTERN `??getIDFromPkt::?relay`
        FUNCTION `??getIDFromPkt::?relay`,00H
        EXTERN `??lookForAddr::?relay`
        FUNCTION `??lookForAddr::?relay`,00H
        EXTERN `??lookUpInit::?relay`
        FUNCTION `??lookUpInit::?relay`,00H
        EXTERN `??osal_mem_free::?relay`
        FUNCTION `??osal_mem_free::?relay`,00H
        EXTERN `??osal_msg_deallocate::?relay`
        FUNCTION `??osal_msg_deallocate::?relay`,00H
        EXTERN `??osal_msg_receive::?relay`
        FUNCTION `??osal_msg_receive::?relay`,00H
        EXTERN `??osal_set_event::?relay`
        FUNCTION `??osal_set_event::?relay`,00H
        EXTERN `??osal_start_timerEx::?relay`
        FUNCTION `??osal_start_timerEx::?relay`,00H
        EXTERN `??osal_strlen::?relay`
        FUNCTION `??osal_strlen::?relay`,00H
        EXTERN `??processFrameRx::?relay`
        FUNCTION `??processFrameRx::?relay`,00H
        EXTERN `??sendDataToPC::?relay`
        FUNCTION `??sendDataToPC::?relay`,00H
        EXTERN `??updateLookUpTable::?relay`
        FUNCTION `??updateLookUpTable::?relay`,00H
        EXTERN AF_DataRequest
        FUNCTION AF_DataRequest,0202H
        ARGFRAME ISTACK, 0, STACK
        ARGFRAME PSTACK, 0, STACK
        ARGFRAME XSTACK, 291, STACK
        ARGFRAME IOVERLAY, 0, STATIC
        ARGFRAME DOVERLAY, 0, STATIC
        EXTERN HalLcdWriteString
        FUNCTION HalLcdWriteString,0202H
        ARGFRAME ISTACK, 0, STACK
        ARGFRAME PSTACK, 0, STACK
        ARGFRAME XSTACK, 282, STACK
        ARGFRAME IOVERLAY, 0, STATIC
        ARGFRAME DOVERLAY, 0, STATIC
        EXTERN HalLedSet
        FUNCTION HalLedSet,0202H
        ARGFRAME ISTACK, 0, STACK
        ARGFRAME PSTACK, 0, STACK
        ARGFRAME XSTACK, 282, STACK
        ARGFRAME IOVERLAY, 0, STATIC
        ARGFRAME DOVERLAY, 0, STATIC
        EXTERN RegisterForKeys
        FUNCTION RegisterForKeys,0202H
        ARGFRAME ISTACK, 0, STACK
        ARGFRAME PSTACK, 0, STACK
        ARGFRAME XSTACK, 9, STACK
        ARGFRAME IOVERLAY, 0, STATIC
        ARGFRAME DOVERLAY, 0, STATIC
        EXTERN ZDO_ParseEPListRsp
        FUNCTION ZDO_ParseEPListRsp,0202H
        ARGFRAME ISTACK, 0, STACK
        ARGFRAME PSTACK, 0, STACK
        ARGFRAME XSTACK, 282, STACK
        ARGFRAME IOVERLAY, 0, STATIC
        ARGFRAME DOVERLAY, 0, STATIC
        EXTERN ZDO_RegisterForZDOMsg
        FUNCTION ZDO_RegisterForZDOMsg,0202H
        ARGFRAME ISTACK, 0, STACK
        ARGFRAME PSTACK, 0, STACK
        ARGFRAME XSTACK, 9, STACK
        ARGFRAME IOVERLAY, 0, STATIC
        ARGFRAME DOVERLAY, 0, STATIC
        EXTERN ZDP_EndDeviceBindReq
        FUNCTION ZDP_EndDeviceBindReq,0202H
        ARGFRAME ISTACK, 0, STACK
        ARGFRAME PSTACK, 0, STACK
        ARGFRAME XSTACK, 291, STACK
        ARGFRAME IOVERLAY, 0, STATIC
        ARGFRAME DOVERLAY, 0, STATIC
        EXTERN afRegister
        FUNCTION afRegister,0202H
        ARGFRAME ISTACK, 0, STACK
        ARGFRAME PSTACK, 0, STACK
        ARGFRAME XSTACK, 9, STACK
        ARGFRAME IOVERLAY, 0, STATIC
        ARGFRAME DOVERLAY, 0, STATIC
        EXTERN circularInit
        FUNCTION circularInit,0202H
        ARGFRAME ISTACK, 0, STACK
        ARGFRAME PSTACK, 0, STACK
        ARGFRAME XSTACK, 9, STACK
        ARGFRAME IOVERLAY, 0, STATIC
        ARGFRAME DOVERLAY, 0, STATIC
        EXTERN circularPut
        FUNCTION circularPut,0202H
        ARGFRAME ISTACK, 0, STACK
        ARGFRAME PSTACK, 0, STACK
        ARGFRAME XSTACK, 9, STACK
        ARGFRAME IOVERLAY, 0, STATIC
        ARGFRAME DOVERLAY, 0, STATIC
        EXTERN dllInit
        FUNCTION dllInit,0202H
        ARGFRAME ISTACK, 0, STACK
        ARGFRAME PSTACK, 0, STACK
        ARGFRAME XSTACK, 9, STACK
        ARGFRAME IOVERLAY, 0, STATIC
        ARGFRAME DOVERLAY, 0, STATIC
        EXTERN getCmd
        FUNCTION getCmd,0202H
        ARGFRAME ISTACK, 0, STACK
        ARGFRAME PSTACK, 0, STACK
        ARGFRAME XSTACK, 282, STACK
        ARGFRAME IOVERLAY, 0, STATIC
        ARGFRAME DOVERLAY, 0, STATIC
        EXTERN getDataFromPkt
        FUNCTION getDataFromPkt,0202H
        ARGFRAME ISTACK, 0, STACK
        ARGFRAME PSTACK, 0, STACK
        ARGFRAME XSTACK, 282, STACK
        ARGFRAME IOVERLAY, 0, STATIC
        ARGFRAME DOVERLAY, 0, STATIC
        EXTERN getIDFromPkt
        FUNCTION getIDFromPkt,0202H
        ARGFRAME ISTACK, 0, STACK
        ARGFRAME PSTACK, 0, STACK
        ARGFRAME XSTACK, 282, STACK
        ARGFRAME IOVERLAY, 0, STATIC
        ARGFRAME DOVERLAY, 0, STATIC
        EXTERN lookForAddr
        FUNCTION lookForAddr,0202H
        ARGFRAME ISTACK, 0, STACK
        ARGFRAME PSTACK, 0, STACK
        ARGFRAME XSTACK, 282, STACK
        ARGFRAME IOVERLAY, 0, STATIC
        ARGFRAME DOVERLAY, 0, STATIC
        EXTERN lookUpInit
        FUNCTION lookUpInit,0202H
        ARGFRAME ISTACK, 0, STACK
        ARGFRAME PSTACK, 0, STACK
        ARGFRAME XSTACK, 9, STACK
        ARGFRAME IOVERLAY, 0, STATIC
        ARGFRAME DOVERLAY, 0, STATIC
        EXTERN osal_mem_free
        FUNCTION osal_mem_free,0202H
        ARGFRAME ISTACK, 0, STACK
        ARGFRAME PSTACK, 0, STACK
        ARGFRAME XSTACK, 282, STACK
        ARGFRAME IOVERLAY, 0, STATIC
        ARGFRAME DOVERLAY, 0, STATIC
        EXTERN osal_msg_deallocate
        FUNCTION osal_msg_deallocate,0202H
        ARGFRAME ISTACK, 0, STACK
        ARGFRAME PSTACK, 0, STACK
        ARGFRAME XSTACK, 282, STACK
        ARGFRAME IOVERLAY, 0, STATIC
        ARGFRAME DOVERLAY, 0, STATIC
        EXTERN osal_msg_receive
        FUNCTION osal_msg_receive,0202H
        ARGFRAME ISTACK, 0, STACK
        ARGFRAME PSTACK, 0, STACK
        ARGFRAME XSTACK, 282, STACK
        ARGFRAME IOVERLAY, 0, STATIC
        ARGFRAME DOVERLAY, 0, STATIC
        EXTERN osal_set_event
        FUNCTION osal_set_event,0202H
        ARGFRAME ISTACK, 0, STACK
        ARGFRAME PSTACK, 0, STACK
        ARGFRAME XSTACK, 282, STACK
        ARGFRAME IOVERLAY, 0, STATIC
        ARGFRAME DOVERLAY, 0, STATIC
        EXTERN osal_start_timerEx
        FUNCTION osal_start_timerEx,0202H
        ARGFRAME ISTACK, 0, STACK
        ARGFRAME PSTACK, 0, STACK
        ARGFRAME XSTACK, 286, STACK
        ARGFRAME IOVERLAY, 0, STATIC
        ARGFRAME DOVERLAY, 0, STATIC
        EXTERN osal_strlen
        FUNCTION osal_strlen,0202H
        ARGFRAME ISTACK, 0, STACK
        ARGFRAME PSTACK, 0, STACK
        ARGFRAME XSTACK, 282, STACK
        ARGFRAME IOVERLAY, 0, STATIC
        ARGFRAME DOVERLAY, 0, STATIC
        EXTERN processFrameRx
        FUNCTION processFrameRx,0202H
        ARGFRAME ISTACK, 0, STACK
        ARGFRAME PSTACK, 0, STACK
        ARGFRAME XSTACK, 282, STACK
        ARGFRAME IOVERLAY, 0, STATIC
        ARGFRAME DOVERLAY, 0, STATIC
        EXTERN sendDataToPC
        FUNCTION sendDataToPC,0202H
        ARGFRAME ISTACK, 0, STACK
        ARGFRAME PSTACK, 0, STACK
        ARGFRAME XSTACK, 282, STACK
        ARGFRAME IOVERLAY, 0, STATIC
        ARGFRAME DOVERLAY, 0, STATIC
        EXTERN updateLookUpTable
        FUNCTION updateLookUpTable,0202H
        ARGFRAME ISTACK, 0, STACK
        ARGFRAME PSTACK, 0, STACK
        ARGFRAME XSTACK, 289, STACK
        ARGFRAME IOVERLAY, 0, STATIC
        ARGFRAME DOVERLAY, 0, STATIC

// C:\Users\ljuic\Desktop\New folder\ZigBeeCoordinator\Projects\zstack\Samples\GenericApp\Source\GenericApp.c
//    1 /******************************************************************************
//    2   Filename:       GenericApp.c
//    3   Revised:        $Date: 2014-09-07 13:36:30 -0700 (Sun, 07 Sep 2014) $
//    4   Revision:       $Revision: 40046 $
//    5 
//    6   Description:    Generic Application (no Profile).
//    7 
//    8 
//    9   Copyright 2004-2014 Texas Instruments Incorporated. All rights reserved.
//   10 
//   11   IMPORTANT: Your use of this Software is limited to those specific rights
//   12   granted under the terms of a software license agreement between the user
//   13   who downloaded the software, his/her employer (which must be your employer)
//   14   and Texas Instruments Incorporated (the "License"). You may not use this
//   15   Software unless you agree to abide by the terms of the License. The License
//   16   limits your use, and you acknowledge, that the Software may not be modified,
//   17   copied or distributed unless embedded on a Texas Instruments microcontroller
//   18   or used solely and exclusively in conjunction with a Texas Instruments radio
//   19   frequency transceiver, which is integrated into your product. Other than for
//   20   the foregoing purpose, you may not use, reproduce, copy, prepare derivative
//   21   works of, modify, distribute, perform, display or sell this Software and/or
//   22   its documentation for any purpose.
//   23 
//   24   YOU FURTHER ACKNOWLEDGE AND AGREE THAT THE SOFTWARE AND DOCUMENTATION ARE
//   25   PROVIDED “AS IS” WITHOUT WARRANTY OF ANY KIND, EITHER EXPRESS OR IMPLIED,
//   26   INCLUDING WITHOUT LIMITATION, ANY WARRANTY OF MERCHANTABILITY, TITLE,
//   27   NON-INFRINGEMENT AND FITNESS FOR A PARTICULAR PURPOSE. IN NO EVENT SHALL
//   28   TEXAS INSTRUMENTS OR ITS LICENSORS BE LIABLE OR OBLIGATED UNDER CONTRACT,
//   29   NEGLIGENCE, STRICT LIABILITY, CONTRIBUTION, BREACH OF WARRANTY, OR OTHER
//   30   LEGAL EQUITABLE THEORY ANY DIRECT OR INDIRECT DAMAGES OR EXPENSES
//   31   INCLUDING BUT NOT LIMITED TO ANY INCIDENTAL, SPECIAL, INDIRECT, PUNITIVE
//   32   OR CONSEQUENTIAL DAMAGES, LOST PROFITS OR LOST DATA, COST OF PROCUREMENT
//   33   OF SUBSTITUTE GOODS, TECHNOLOGY, SERVICES, OR ANY CLAIMS BY THIRD PARTIES
//   34   (INCLUDING BUT NOT LIMITED TO ANY DEFENSE THEREOF), OR OTHER SIMILAR COSTS.
//   35 
//   36   Should you have any questions regarding your right to use this Software,
//   37   contact Texas Instruments Incorporated at www.TI.com.
//   38 ******************************************************************************/
//   39 
//   40 /*********************************************************************
//   41   This application isn't intended to do anything useful - it is
//   42   intended to be a simple example of an application's structure.
//   43 
//   44   This application periodically sends a "Hello World" message to
//   45   another "Generic" application (see 'txMsgDelay'). The application
//   46   will also receive "Hello World" packets.
//   47 
//   48   This application doesn't have a profile, so it handles everything
//   49   directly - by itself.
//   50 
//   51   Key control:
//   52     SW1:  changes the delay between TX packets
//   53     SW2:  initiates end device binding
//   54     SW3:
//   55     SW4:  initiates a match description request
//   56 *********************************************************************/
//   57 
//   58 /*********************************************************************
//   59  * INCLUDES
//   60  */
//   61 #include "OSAL.h"
//   62 #include "AF.h"
//   63 #include "ZDApp.h"
//   64 #include "ZDObject.h"
//   65 #include "ZDProfile.h"
//   66 
//   67 #include "GenericApp.h"
//   68 #include "DebugTrace.h"
//   69 
//   70 #if !defined( WIN32 ) || defined( ZBIT )
//   71   #include "OnBoard.h"
//   72 #endif
//   73 
//   74 /* HAL */
//   75 #include "hal_lcd.h"
//   76 #include "hal_led.h"
//   77 #include "hal_key.h"
//   78 #include "hal_uart.h"
//   79 #include "hal_adc.h"
//   80 
//   81 /* RTOS */
//   82 #if defined( IAR_ARMCM3_LM )
//   83 #include "RTOS_App.h"
//   84 #endif
//   85 
//   86 
//   87 
//   88 
//   89 
//   90 
//   91 
//   92 ////////////////////////////////////////////////////////////////////////////////////////////
//   93 //#include "includes/hal_driver.h"
//   94 #include "hal_drivers.h"
//   95 
//   96 #include "includes/dll.h"
//   97 #include "includes/look_up_table.h"
//   98 
//   99 #include "includes/circular_buffer.h"
//  100 
//  101 ////////////////////////////////////////////////////////////////////////////////////////////
//  102 
//  103 /*********************************************************************
//  104  * MACROS
//  105  */
//  106 
//  107 
//  108 #define GENERICAPP_ENDPOINT           10
//  109 
//  110 #define GENERICAPP_PROFID             0x0F04
//  111 #define GENERICAPP_DEVICEID           0x0001
//  112 #define GENERICAPP_DEVICE_VERSION     0
//  113 #define GENERICAPP_FLAGS              0
//  114 
//  115 #define GENERICAPP_MAX_CLUSTERS       1
//  116 #define GENERICAPP_CLUSTERID          1
//  117 
//  118 
//  119 #define MAX_NUMBER_OF_ENDDEVICES      10
//  120 
//  121 
//  122 // magnetic switch macros
//  123 #define DOOR_CLOSED_DETECTION P1_2
//  124 #define TRUE 1
//  125 #define CLOSED 1
//  126 #define OPENED 0
//  127 // magnetic switch macros end
//  128    
//  129 
//  130 #define HAL_UART_ISR 2
//  131 
//  132 #define HAL_UART_MSECS_TO_TICKS    33
//  133 
//  134 #if !defined HAL_UART_ISR_IDLE
//  135 #define HAL_UART_ISR_IDLE         (6 * HAL_UART_MSECS_TO_TICKS)
//  136 #endif
//  137 
//  138 #if !defined HAL_UART_ISR_RX_MAX
//  139 #define HAL_UART_ISR_RX_MAX        128
//  140 #endif
//  141 #if !defined HAL_UART_ISR_TX_MAX
//  142 #define HAL_UART_ISR_TX_MAX        HAL_UART_ISR_RX_MAX
//  143 #endif
//  144    
//  145 /*********************************************************************
//  146  * CONSTANTS
//  147  */
//  148 
//  149 /*********************************************************************
//  150  * TYPEDEFS
//  151  */
//  152 
//  153 /*********************************************************************
//  154  * GLOBAL VARIABLES
//  155  */
//  156 ////////////////////////////////////////////////////////////////////////////////////////////

        RSEG XDATA_Z:XDATA:NOROOT(0)
        DATA8
//  157 CircularBuffer_t cMain;
cMain:
        DS 260
        REQUIRE __INIT_XDATA_Z

        RSEG XDATA_Z:XDATA:NOROOT(0)
        DATA8
//  158 uint8 dataRdy;
dataRdy:
        DS 1
        REQUIRE __INIT_XDATA_Z

        RSEG XDATA_Z:XDATA:NOROOT(0)
        DATA8
//  159 LookUpTable_t lutData[20];
lutData:
        DS 200
        REQUIRE __INIT_XDATA_Z

        RSEG XDATA_Z:XDATA:NOROOT(0)
        DATA16
//  160 uint8 *rxBuffer;
rxBuffer:
        DS 2
        REQUIRE __INIT_XDATA_Z

        RSEG XDATA_Z:XDATA:NOROOT(0)
        DATA8
//  161 halUARTCfg_t uartConfig;
uartConfig:
        DS 29
        REQUIRE __INIT_XDATA_Z
//  162 ////////////////////////////////////////////////////////////////////////////////////////////
//  163 

        RSEG XDATA_I:XDATA:NOROOT(0)
//  164 uint8 coin = 1;
coin:
        DATA8
        DS 1
        REQUIRE `?<Initializer for coin>`
        REQUIRE __INIT_XDATA_I

        RSEG XDATA_Z:XDATA:NOROOT(0)
        DATA8
//  165 char prevData = 0;
prevData:
        DS 1
        REQUIRE __INIT_XDATA_Z
//  166 
//  167 

        RSEG XDATA_I:XDATA:NOROOT(0)
//  168 uint8 keyPressSW4 = 1;
keyPressSW4:
        DATA8
        DS 1
        REQUIRE `?<Initializer for keyPressSW4>`
        REQUIRE __INIT_XDATA_I
//  169 

        RSEG XDATA_Z:XDATA:NOROOT(0)
        DATA8
//  170 uint8 dataBuffer[10];
dataBuffer:
        DS 10
        REQUIRE __INIT_XDATA_Z
//  171    

        RSEG XDATA_Z:XDATA:NOROOT(0)
        DATA16
//  172 uint8 *buff;
buff:
        DS 2
        REQUIRE __INIT_XDATA_Z
//  173 

        RSEG XDATA_Z:XDATA:NOROOT(0)
        DATA16
//  174 int counter = 0;
counter:
        DS 2
        REQUIRE __INIT_XDATA_Z
//  175 
//  176 

        RSEG XDATA_Z:XDATA:NOROOT(0)
        DATA8
//  177 uint16 shortAddressOfEndDevice[MAX_NUMBER_OF_ENDDEVICES] = {0,0};
shortAddressOfEndDevice:
        DS 20
        REQUIRE __INIT_XDATA_Z

        RSEG XDATA_Z:XDATA:NOROOT(0)
        DATA8
//  178 uint16 SAddr[MAX_NUMBER_OF_ENDDEVICES] = {0,0};
SAddr:
        DS 20
        REQUIRE __INIT_XDATA_Z
//  179 

        RSEG XDATA_Z:XDATA:NOROOT(0)
        DATA8
//  180 uint8 index = 0;
index:
        DS 1
        REQUIRE __INIT_XDATA_Z
//  181 

        RSEG XDATA_Z:XDATA:NOROOT(0)
        DATA8
//  182 uint8 brojac = 0;
brojac:
        DS 1
        REQUIRE __INIT_XDATA_Z
//  183 
//  184 
//  185 // This list should be filled with Application specific Cluster IDs.

        RSEG XDATA_ROM_C:CONST:REORDER:NOROOT(0)
        DATA16
//  186 const cId_t GenericApp_ClusterList[GENERICAPP_MAX_CLUSTERS] =
GenericApp_ClusterList:
        DW 1
//  187 {
//  188   GENERICAPP_CLUSTERID
//  189 };
//  190 

        RSEG XDATA_ROM_C:CONST:REORDER:NOROOT(0)
        DATA8
//  191 const SimpleDescriptionFormat_t GenericApp_SimpleDesc =
GenericApp_SimpleDesc:
        DB 10
        DATA16
        DW 3844
        DW 1
        DATA8
        DB 0
        DB 1
        DATA16
        DW GenericApp_ClusterList
        DATA8
        DB 1
        DATA16
        DW GenericApp_ClusterList
//  192 {
//  193   GENERICAPP_ENDPOINT,              //  int Endpoint;
//  194   GENERICAPP_PROFID,                //  uint16 AppProfId[2];
//  195   GENERICAPP_DEVICEID,              //  uint16 AppDeviceId[2];
//  196   GENERICAPP_DEVICE_VERSION,        //  int   AppDevVer:4;
//  197   GENERICAPP_FLAGS,                 //  int   AppFlags:4;
//  198   GENERICAPP_MAX_CLUSTERS,          //  byte  AppNumInClusters;
//  199   (cId_t *)GenericApp_ClusterList,  //  byte *pAppInClusterList;
//  200   GENERICAPP_MAX_CLUSTERS,          //  byte  AppNumInClusters;
//  201   (cId_t *)GenericApp_ClusterList   //  byte *pAppInClusterList;
//  202 };
//  203 
//  204 // This is the Endpoint/Interface description.  It is defined here, but
//  205 // filled-in in GenericApp_Init().  Another way to go would be to fill
//  206 // in the structure here and make it a "const" (in code space).  The
//  207 // way it's defined in this sample app it is define in RAM.

        RSEG XDATA_Z:XDATA:NOROOT(0)
        DATA8
//  208 endPointDesc_t GenericApp_epDesc;
GenericApp_epDesc:
        DS 6
        REQUIRE __INIT_XDATA_Z
//  209 
//  210 /*********************************************************************
//  211  * EXTERNAL VARIABLES
//  212  */
//  213 
//  214 /*********************************************************************
//  215  * EXTERNAL FUNCTIONS
//  216  */
//  217 
//  218   extern void uartInit(void);
//  219   extern void uartSend(char);
//  220  // void LazoInit(void);
//  221 
//  222 /*********************************************************************
//  223  * LOCAL VARIABLES
//  224  */

        RSEG XDATA_Z:XDATA:NOROOT(0)
        DATA8
//  225 byte GenericApp_TaskID;   // Task ID for internal task/event processing
GenericApp_TaskID:
        DS 1
        REQUIRE __INIT_XDATA_Z
//  226                           // This variable will be received when
//  227                           // GenericApp_Init() is called.
//  228 

        RSEG XDATA_Z:XDATA:NOROOT(0)
        DATA8
//  229 devStates_t GenericApp_NwkState;
GenericApp_NwkState:
        DS 1
        REQUIRE __INIT_XDATA_Z
//  230 

        RSEG XDATA_Z:XDATA:NOROOT(0)
        DATA8
//  231 byte GenericApp_TransID;  // This is the unique message ID (counter)
GenericApp_TransID:
        DS 1
        REQUIRE __INIT_XDATA_Z
//  232 

        RSEG XDATA_Z:XDATA:NOROOT(0)
        DATA8
//  233 afAddrType_t GenericApp_DstAddr;
GenericApp_DstAddr:
        DS 12
        REQUIRE __INIT_XDATA_Z

        RSEG XDATA_Z:XDATA:NOROOT(0)
        DATA8
//  234 afAddrType_t GenericApp_DstAddress;//GenericApp_DstAddress
GenericApp_DstAddress:
        DS 12
        REQUIRE __INIT_XDATA_Z
//  235 //////////////////////////////////////////////////////////////////////////////  Mozda izbrisati ovo
//  236 
//  237 //afAddrType_t GenericApp_DstAddress[MAX_NUMBER_OF_ENDDEVICES] = {0,0};
//  238 
//  239 // Number of recieved messages

        RSEG XDATA_Z:XDATA:NOROOT(0)
        DATA16
//  240 static uint16 rxMsgCount;
rxMsgCount:
        DS 2
        REQUIRE __INIT_XDATA_Z
//  241 
//  242 // Time interval between sending messages

        RSEG XDATA_I:XDATA:NOROOT(0)
//  243 static uint32 txMsgDelay = GENERICAPP_SEND_MSG_TIMEOUT;
txMsgDelay:
        DATA32
        DS 4
        REQUIRE `?<Initializer for txMsgDelay>`
        REQUIRE __INIT_XDATA_I
//  244 
//  245 /*********************************************************************
//  246  * LOCAL FUNCTIONS
//  247  */
//  248 static void GenericApp_ProcessZDOMsgs( zdoIncomingMsg_t *inMsg );
//  249 //static void GenericApp_HandleKeys( byte shift, byte keys );
//  250 static void GenericApp_MessageMSGCB( afIncomingMSGPacket_t *pckt );
//  251 static void GenericApp_SendTheMessage( void );
//  252 
//  253 //static void GenericApp_EndPointList(uint16);
//  254 
//  255 #if defined( IAR_ARMCM3_LM )
//  256 static void GenericApp_ProcessRtosMessage( void );
//  257 #endif
//  258 
//  259 /*********************************************************************
//  260  * NETWORK LAYER CALLBACKS
//  261  */
//  262 
//  263 /*********************************************************************
//  264  * PUBLIC FUNCTIONS
//  265  */
//  266 
//  267 /*********************************************************************
//  268  * @fn      GenericApp_Init
//  269  *
//  270  * @brief   Initialization function for the Generic App Task.
//  271  *          This is called during initialization and should contain
//  272  *          any application specific initialization (ie. hardware
//  273  *          initialization/setup, table initialization, power up
//  274  *          notificaiton ... ).
//  275  *
//  276  * @param   task_id - the ID assigned by OSAL.  This ID should be
//  277  *                    used to send messages and set timers.
//  278  *
//  279  * @return  none
//  280  */
//  281 
//  282 

        RSEG BANKED_CODE:HUGECODE:NOROOT(0)
//  283 void GenericApp_Init( uint8 task_id )
GenericApp_Init:
          CFI Block cfiBlock0 Using cfiCommon0
          CFI Function GenericApp_Init
        CODE
//  284 {
        FUNCALL GenericApp_Init, afRegister
        LOCFRAME ISTACK, 0, STACK
        LOCFRAME PSTACK, 0, STACK
        LOCFRAME XSTACK, 9, STACK
        LOCFRAME IOVERLAY, 0, STATIC
        LOCFRAME DOVERLAY, 0, STATIC
        ARGFRAME ISTACK, 0, STACK
        ARGFRAME PSTACK, 0, STACK
        ARGFRAME XSTACK, 9, STACK
        ARGFRAME IOVERLAY, 0, STATIC
        ARGFRAME DOVERLAY, 0, STATIC
        FUNCALL GenericApp_Init, RegisterForKeys
        LOCFRAME ISTACK, 0, STACK
        LOCFRAME PSTACK, 0, STACK
        LOCFRAME XSTACK, 9, STACK
        LOCFRAME IOVERLAY, 0, STATIC
        LOCFRAME DOVERLAY, 0, STATIC
        ARGFRAME ISTACK, 0, STACK
        ARGFRAME PSTACK, 0, STACK
        ARGFRAME XSTACK, 9, STACK
        ARGFRAME IOVERLAY, 0, STATIC
        ARGFRAME DOVERLAY, 0, STATIC
        FUNCALL GenericApp_Init, HalLcdWriteString
        LOCFRAME ISTACK, 0, STACK
        LOCFRAME PSTACK, 0, STACK
        LOCFRAME XSTACK, 9, STACK
        LOCFRAME IOVERLAY, 0, STATIC
        LOCFRAME DOVERLAY, 0, STATIC
        ARGFRAME ISTACK, 0, STACK
        ARGFRAME PSTACK, 0, STACK
        ARGFRAME XSTACK, 9, STACK
        ARGFRAME IOVERLAY, 0, STATIC
        ARGFRAME DOVERLAY, 0, STATIC
        FUNCALL GenericApp_Init, ZDO_RegisterForZDOMsg
        LOCFRAME ISTACK, 0, STACK
        LOCFRAME PSTACK, 0, STACK
        LOCFRAME XSTACK, 9, STACK
        LOCFRAME IOVERLAY, 0, STATIC
        LOCFRAME DOVERLAY, 0, STATIC
        ARGFRAME ISTACK, 0, STACK
        ARGFRAME PSTACK, 0, STACK
        ARGFRAME XSTACK, 9, STACK
        ARGFRAME IOVERLAY, 0, STATIC
        ARGFRAME DOVERLAY, 0, STATIC
        FUNCALL GenericApp_Init, ZDO_RegisterForZDOMsg
        LOCFRAME ISTACK, 0, STACK
        LOCFRAME PSTACK, 0, STACK
        LOCFRAME XSTACK, 9, STACK
        LOCFRAME IOVERLAY, 0, STATIC
        LOCFRAME DOVERLAY, 0, STATIC
        ARGFRAME ISTACK, 0, STACK
        ARGFRAME PSTACK, 0, STACK
        ARGFRAME XSTACK, 9, STACK
        ARGFRAME IOVERLAY, 0, STATIC
        ARGFRAME DOVERLAY, 0, STATIC
        FUNCALL GenericApp_Init, dllInit
        LOCFRAME ISTACK, 0, STACK
        LOCFRAME PSTACK, 0, STACK
        LOCFRAME XSTACK, 9, STACK
        LOCFRAME IOVERLAY, 0, STATIC
        LOCFRAME DOVERLAY, 0, STATIC
        ARGFRAME ISTACK, 0, STACK
        ARGFRAME PSTACK, 0, STACK
        ARGFRAME XSTACK, 9, STACK
        ARGFRAME IOVERLAY, 0, STATIC
        ARGFRAME DOVERLAY, 0, STATIC
        FUNCALL GenericApp_Init, lookUpInit
        LOCFRAME ISTACK, 0, STACK
        LOCFRAME PSTACK, 0, STACK
        LOCFRAME XSTACK, 9, STACK
        LOCFRAME IOVERLAY, 0, STATIC
        LOCFRAME DOVERLAY, 0, STATIC
        ARGFRAME ISTACK, 0, STACK
        ARGFRAME PSTACK, 0, STACK
        ARGFRAME XSTACK, 9, STACK
        ARGFRAME IOVERLAY, 0, STATIC
        ARGFRAME DOVERLAY, 0, STATIC
        FUNCALL GenericApp_Init, circularInit
        LOCFRAME ISTACK, 0, STACK
        LOCFRAME PSTACK, 0, STACK
        LOCFRAME XSTACK, 9, STACK
        LOCFRAME IOVERLAY, 0, STATIC
        LOCFRAME DOVERLAY, 0, STATIC
        ARGFRAME ISTACK, 0, STACK
        ARGFRAME PSTACK, 0, STACK
        ARGFRAME XSTACK, 9, STACK
        ARGFRAME IOVERLAY, 0, STATIC
        ARGFRAME DOVERLAY, 0, STATIC
        FUNCALL GenericApp_Init, circularPut
        LOCFRAME ISTACK, 0, STACK
        LOCFRAME PSTACK, 0, STACK
        LOCFRAME XSTACK, 9, STACK
        LOCFRAME IOVERLAY, 0, STATIC
        LOCFRAME DOVERLAY, 0, STATIC
        ARGFRAME ISTACK, 0, STACK
        ARGFRAME PSTACK, 0, STACK
        ARGFRAME XSTACK, 9, STACK
        ARGFRAME IOVERLAY, 0, STATIC
        ARGFRAME DOVERLAY, 0, STATIC
        FUNCALL GenericApp_Init, circularPut
        LOCFRAME ISTACK, 0, STACK
        LOCFRAME PSTACK, 0, STACK
        LOCFRAME XSTACK, 9, STACK
        LOCFRAME IOVERLAY, 0, STATIC
        LOCFRAME DOVERLAY, 0, STATIC
        ARGFRAME ISTACK, 0, STACK
        ARGFRAME PSTACK, 0, STACK
        ARGFRAME XSTACK, 9, STACK
        ARGFRAME IOVERLAY, 0, STATIC
        ARGFRAME DOVERLAY, 0, STATIC
        FUNCALL GenericApp_Init, circularPut
        LOCFRAME ISTACK, 0, STACK
        LOCFRAME PSTACK, 0, STACK
        LOCFRAME XSTACK, 9, STACK
        LOCFRAME IOVERLAY, 0, STATIC
        LOCFRAME DOVERLAY, 0, STATIC
        ARGFRAME ISTACK, 0, STACK
        ARGFRAME PSTACK, 0, STACK
        ARGFRAME XSTACK, 9, STACK
        ARGFRAME IOVERLAY, 0, STATIC
        ARGFRAME DOVERLAY, 0, STATIC
        FUNCALL GenericApp_Init, circularPut
        LOCFRAME ISTACK, 0, STACK
        LOCFRAME PSTACK, 0, STACK
        LOCFRAME XSTACK, 9, STACK
        LOCFRAME IOVERLAY, 0, STATIC
        LOCFRAME DOVERLAY, 0, STATIC
        ARGFRAME ISTACK, 0, STACK
        ARGFRAME PSTACK, 0, STACK
        ARGFRAME XSTACK, 9, STACK
        ARGFRAME IOVERLAY, 0, STATIC
        ARGFRAME DOVERLAY, 0, STATIC
        MOV     A,#-0x9
        LCALL   ?BANKED_ENTER_XDATA
          CFI DPH0 load(1, XDATA, add(CFA_XSP16, literal(-1)))
          CFI DPL0 load(1, XDATA, add(CFA_XSP16, literal(-2)))
          CFI ?BRET_EXT load(1, XDATA, add(CFA_XSP16, literal(-3)))
          CFI ?RET_HIGH load(1, XDATA, add(CFA_XSP16, literal(-4)))
          CFI ?RET_LOW load(1, XDATA, add(CFA_XSP16, literal(-5)))
          CFI R7 load(1, XDATA, add(CFA_XSP16, literal(-6)))
          CFI V0 load(1, XDATA, add(CFA_XSP16, literal(-7)))
          CFI VB load(1, XDATA, add(CFA_XSP16, literal(-8)))
          CFI R6 load(1, XDATA, add(CFA_XSP16, literal(-9)))
          CFI CFA_SP SP+0
          CFI CFA_XSP16 add(XSP16, 9)
        ; Saved register size: 9
        ; Auto size: 0
        MOV     A,R1
//  285   GenericApp_TaskID = task_id;
        MOV     DPTR,#GenericApp_TaskID
        MOVX    @DPTR,A
//  286   GenericApp_NwkState = DEV_INIT;
        MOV     DPTR,#GenericApp_NwkState
        MOV     A,#0x1
        MOVX    @DPTR,A
//  287   GenericApp_TransID = 0;
        MOV     DPTR,#GenericApp_TransID
        CLR     A
        MOVX    @DPTR,A
//  288   
//  289   // Device hardware initialization can be added here or in main() (Zmain.c).
//  290   // If the hardware is application specific - add it here.
//  291   // If the hardware is other parts of the device add it in main().
//  292 
//  293   /*GenericApp_DstAddr.addrMode = (afAddrMode_t)Addr16Bit;
//  294   GenericApp_DstAddr.endPoint = GENERICAPP_ENDPOINT;
//  295   GenericApp_DstAddr.addr.shortAddr = 0xFFFF; //0;// NLME_GetShortAddr();//1;*/
//  296 
//  297   // Fill out the endpoint description.
//  298   GenericApp_epDesc.endPoint = GENERICAPP_ENDPOINT;
        MOV     DPTR,#GenericApp_epDesc
        MOV     A,#0xa
        MOVX    @DPTR,A
//  299   GenericApp_epDesc.task_id = &GenericApp_TaskID;
        INC     DPTR
        MOV     A,#GenericApp_TaskID & 0xff
        MOVX    @DPTR,A
        INC     DPTR
        MOV     A,#(GenericApp_TaskID >> 8) & 0xff
        MOVX    @DPTR,A
//  300   GenericApp_epDesc.simpleDesc
//  301             = (SimpleDescriptionFormat_t *)&GenericApp_SimpleDesc;
        INC     DPTR
        MOV     A,#GenericApp_SimpleDesc & 0xff
        MOVX    @DPTR,A
        INC     DPTR
        MOV     A,#(GenericApp_SimpleDesc >> 8) & 0xff
        MOVX    @DPTR,A
//  302   GenericApp_epDesc.latencyReq = noLatencyReqs;
        INC     DPTR
        CLR     A
        MOVX    @DPTR,A
//  303 
//  304   // Register the endpoint description with the AF
//  305   afRegister( &GenericApp_epDesc );
        ; Setup parameters for call to function afRegister
        MOV     R2,#GenericApp_epDesc & 0xff
        MOV     R3,#(GenericApp_epDesc >> 8) & 0xff
        LCALL   `??afRegister::?relay`; Banked call to: afRegister
//  306 
//  307   // Register for all key events - This app will handle all key events
//  308   RegisterForKeys( GenericApp_TaskID );
        ; Setup parameters for call to function RegisterForKeys
        MOV     DPTR,#GenericApp_TaskID
        MOVX    A,@DPTR
        MOV     R1,A
        LCALL   `??RegisterForKeys::?relay`; Banked call to: RegisterForKeys
//  309 
//  310   // Update the display
//  311 #if defined ( LCD_SUPPORTED )
//  312   HalLcdWriteString( "GenericApp", HAL_LCD_LINE_1 );
        ; Setup parameters for call to function HalLcdWriteString
        MOV     R1,#0x1
        MOV     R2,#`?<Constant "GenericApp">` & 0xff
        MOV     R3,#(`?<Constant "GenericApp">` >> 8) & 0xff
        LCALL   `??HalLcdWriteString::?relay`; Banked call to: HalLcdWriteString
//  313 #endif
//  314 
//  315   ZDO_RegisterForZDOMsg( GenericApp_TaskID, End_Device_Bind_rsp );
        ; Setup parameters for call to function ZDO_RegisterForZDOMsg
        MOV     R2,#0x20
        MOV     R3,#-0x80
        MOV     DPTR,#GenericApp_TaskID
        MOVX    A,@DPTR
        MOV     R1,A
        LCALL   `??ZDO_RegisterForZDOMsg::?relay`; Banked call to: ZDO_RegisterForZDOMsg
//  316   ZDO_RegisterForZDOMsg( GenericApp_TaskID, Match_Desc_rsp );
        ; Setup parameters for call to function ZDO_RegisterForZDOMsg
        MOV     R2,#0x6
        MOV     R3,#-0x80
        MOV     DPTR,#GenericApp_TaskID
        MOVX    A,@DPTR
        MOV     R1,A
        LCALL   `??ZDO_RegisterForZDOMsg::?relay`; Banked call to: ZDO_RegisterForZDOMsg
//  317 
//  318 #if defined( IAR_ARMCM3_LM )
//  319   // Register this task with RTOS task initiator
//  320   RTOS_RegisterApp( task_id, GENERICAPP_RTOS_MSG_EVT );
//  321 #endif
//  322 /////////////////////////////////////////////////////////////////////////////////////////////////////////////////////  
//  323   //halInitDriver();
//  324     dllInit();
        ; Setup parameters for call to function dllInit
        LCALL   `??dllInit::?relay`  ; Banked call to: dllInit
//  325     lookUpInit();
        ; Setup parameters for call to function lookUpInit
        LCALL   `??lookUpInit::?relay`; Banked call to: lookUpInit
//  326     circularInit(&cMain);
        ; Setup parameters for call to function circularInit
        MOV     R2,#cMain & 0xff
        MOV     R3,#(cMain >> 8) & 0xff
        LCALL   `??circularInit::?relay`; Banked call to: circularInit
//  327     
//  328      //halGPIOOutput(HW_PORT_D, 0x03, 0);
//  329 
//  330     circularPut(&cMain, 'T');
        ; Setup parameters for call to function circularPut
        MOV     R1,#0x54
        MOV     R2,#cMain & 0xff
        MOV     R3,#(cMain >> 8) & 0xff
        LCALL   `??circularPut::?relay`; Banked call to: circularPut
//  331     circularPut(&cMain, 'E');
        ; Setup parameters for call to function circularPut
        MOV     R1,#0x45
        MOV     R2,#cMain & 0xff
        MOV     R3,#(cMain >> 8) & 0xff
        LCALL   `??circularPut::?relay`; Banked call to: circularPut
//  332     circularPut(&cMain, 'S');
        ; Setup parameters for call to function circularPut
        MOV     R1,#0x53
        MOV     R2,#cMain & 0xff
        MOV     R3,#(cMain >> 8) & 0xff
        LCALL   `??circularPut::?relay`; Banked call to: circularPut
//  333     circularPut(&cMain, 'T');
        ; Setup parameters for call to function circularPut
        MOV     R1,#0x54
        MOV     R2,#cMain & 0xff
        MOV     R3,#(cMain >> 8) & 0xff
        LCALL   `??circularPut::?relay`; Banked call to: circularPut
//  334     
//  335    // halUARTWrite(PC, &cMain, 0);
//  336   
//  337 ////////////////////////////////////////////////////////////////////////////////////////////  
//  338     
//  339   
//  340 }
        MOV     R7,#0x1
        LJMP    ?BANKED_LEAVE_XDATA
          CFI EndBlock cfiBlock0
//  341 /*********************************************************************
//  342  * @fn      GenericApp_EndPointList
//  343  *
//  344  * @brief   Get's short address of end device and put in the end device 
//  345             array
//  346  *
//  347  * @param   shAddr  - Short Address of connected End Device
//  348  * 
//  349  * @return  none
//  350  */
//  351 /*
//  352 static void GenericApp_EndPointList(uint16 shAddr)
//  353 {
//  354  
//  355   if(index > MAX_NUMBER_OF_ENDDEVICES)
//  356   {
//  357     HalLcdWriteString("Max number of end devices overflow.",0);
//  358   }
//  359   else
//  360   {
//  361     shortAddressOfEndDevice[index];
//  362     index++;
//  363   }
//  364   
//  365   
//  366 }
//  367 */
//  368 /*********************************************************************
//  369  * @fn      GenericApp_ProcessEvent
//  370  *
//  371  * @brief   Generic Application Task event processor.  This function
//  372  *          is called to process all events for the task.  Events
//  373  *          include timers, messages and any other user defined events.
//  374  *
//  375  * @param   task_id  - The OSAL assigned task ID.
//  376  * @param   events - events to process.  This is a bit map and can
//  377  *                   contain more than one event.
//  378  *
//  379  * @return  none
//  380  */

        RSEG BANKED_CODE:HUGECODE:NOROOT(0)
//  381 uint16 GenericApp_ProcessEvent( uint8 task_id, uint16 events )
GenericApp_ProcessEvent:
          CFI Block cfiBlock1 Using cfiCommon0
          CFI Function GenericApp_ProcessEvent
        CODE
//  382 {
        FUNCALL GenericApp_ProcessEvent, osal_msg_receive
        LOCFRAME ISTACK, 0, STACK
        LOCFRAME PSTACK, 0, STACK
        LOCFRAME XSTACK, 282, STACK
        LOCFRAME IOVERLAY, 0, STATIC
        LOCFRAME DOVERLAY, 0, STATIC
        ARGFRAME ISTACK, 0, STACK
        ARGFRAME PSTACK, 0, STACK
        ARGFRAME XSTACK, 282, STACK
        ARGFRAME IOVERLAY, 0, STATIC
        ARGFRAME DOVERLAY, 0, STATIC
        FUNCALL GenericApp_ProcessEvent, osal_set_event
        LOCFRAME ISTACK, 0, STACK
        LOCFRAME PSTACK, 0, STACK
        LOCFRAME XSTACK, 282, STACK
        LOCFRAME IOVERLAY, 0, STATIC
        LOCFRAME DOVERLAY, 0, STATIC
        ARGFRAME ISTACK, 0, STACK
        ARGFRAME PSTACK, 0, STACK
        ARGFRAME XSTACK, 282, STACK
        ARGFRAME IOVERLAY, 0, STATIC
        ARGFRAME DOVERLAY, 0, STATIC
        FUNCALL GenericApp_ProcessEvent, osal_msg_deallocate
        LOCFRAME ISTACK, 0, STACK
        LOCFRAME PSTACK, 0, STACK
        LOCFRAME XSTACK, 282, STACK
        LOCFRAME IOVERLAY, 0, STATIC
        LOCFRAME DOVERLAY, 0, STATIC
        ARGFRAME ISTACK, 0, STACK
        ARGFRAME PSTACK, 0, STACK
        ARGFRAME XSTACK, 282, STACK
        ARGFRAME IOVERLAY, 0, STATIC
        ARGFRAME DOVERLAY, 0, STATIC
        FUNCALL GenericApp_ProcessEvent, osal_msg_receive
        LOCFRAME ISTACK, 0, STACK
        LOCFRAME PSTACK, 0, STACK
        LOCFRAME XSTACK, 282, STACK
        LOCFRAME IOVERLAY, 0, STATIC
        LOCFRAME DOVERLAY, 0, STATIC
        ARGFRAME ISTACK, 0, STACK
        ARGFRAME PSTACK, 0, STACK
        ARGFRAME XSTACK, 282, STACK
        ARGFRAME IOVERLAY, 0, STATIC
        ARGFRAME DOVERLAY, 0, STATIC
        FUNCALL GenericApp_ProcessEvent, HalLcdWriteString
        LOCFRAME ISTACK, 0, STACK
        LOCFRAME PSTACK, 0, STACK
        LOCFRAME XSTACK, 282, STACK
        LOCFRAME IOVERLAY, 0, STATIC
        LOCFRAME DOVERLAY, 0, STATIC
        ARGFRAME ISTACK, 0, STACK
        ARGFRAME PSTACK, 0, STACK
        ARGFRAME XSTACK, 282, STACK
        ARGFRAME IOVERLAY, 0, STATIC
        ARGFRAME DOVERLAY, 0, STATIC
        FUNCALL GenericApp_ProcessEvent, ZDO_ParseEPListRsp
        LOCFRAME ISTACK, 0, STACK
        LOCFRAME PSTACK, 0, STACK
        LOCFRAME XSTACK, 282, STACK
        LOCFRAME IOVERLAY, 0, STATIC
        LOCFRAME DOVERLAY, 0, STATIC
        ARGFRAME ISTACK, 0, STACK
        ARGFRAME PSTACK, 0, STACK
        ARGFRAME XSTACK, 282, STACK
        ARGFRAME IOVERLAY, 0, STATIC
        ARGFRAME DOVERLAY, 0, STATIC
        FUNCALL GenericApp_ProcessEvent, HalLedSet
        LOCFRAME ISTACK, 0, STACK
        LOCFRAME PSTACK, 0, STACK
        LOCFRAME XSTACK, 282, STACK
        LOCFRAME IOVERLAY, 0, STATIC
        LOCFRAME DOVERLAY, 0, STATIC
        ARGFRAME ISTACK, 0, STACK
        ARGFRAME PSTACK, 0, STACK
        ARGFRAME XSTACK, 282, STACK
        ARGFRAME IOVERLAY, 0, STATIC
        ARGFRAME DOVERLAY, 0, STATIC
        FUNCALL GenericApp_ProcessEvent, osal_mem_free
        LOCFRAME ISTACK, 0, STACK
        LOCFRAME PSTACK, 0, STACK
        LOCFRAME XSTACK, 282, STACK
        LOCFRAME IOVERLAY, 0, STATIC
        LOCFRAME DOVERLAY, 0, STATIC
        ARGFRAME ISTACK, 0, STACK
        ARGFRAME PSTACK, 0, STACK
        ARGFRAME XSTACK, 282, STACK
        ARGFRAME IOVERLAY, 0, STATIC
        ARGFRAME DOVERLAY, 0, STATIC
        FUNCALL GenericApp_ProcessEvent, HalLedSet
        LOCFRAME ISTACK, 0, STACK
        LOCFRAME PSTACK, 0, STACK
        LOCFRAME XSTACK, 282, STACK
        LOCFRAME IOVERLAY, 0, STATIC
        LOCFRAME DOVERLAY, 0, STATIC
        ARGFRAME ISTACK, 0, STACK
        ARGFRAME PSTACK, 0, STACK
        ARGFRAME XSTACK, 282, STACK
        ARGFRAME IOVERLAY, 0, STATIC
        ARGFRAME DOVERLAY, 0, STATIC
        FUNCALL GenericApp_ProcessEvent, HalLedSet
        LOCFRAME ISTACK, 0, STACK
        LOCFRAME PSTACK, 0, STACK
        LOCFRAME XSTACK, 282, STACK
        LOCFRAME IOVERLAY, 0, STATIC
        LOCFRAME DOVERLAY, 0, STATIC
        ARGFRAME ISTACK, 0, STACK
        ARGFRAME PSTACK, 0, STACK
        ARGFRAME XSTACK, 282, STACK
        ARGFRAME IOVERLAY, 0, STATIC
        ARGFRAME DOVERLAY, 0, STATIC
        FUNCALL GenericApp_ProcessEvent, HalLedSet
        LOCFRAME ISTACK, 0, STACK
        LOCFRAME PSTACK, 0, STACK
        LOCFRAME XSTACK, 282, STACK
        LOCFRAME IOVERLAY, 0, STATIC
        LOCFRAME DOVERLAY, 0, STATIC
        ARGFRAME ISTACK, 0, STACK
        ARGFRAME PSTACK, 0, STACK
        ARGFRAME XSTACK, 282, STACK
        ARGFRAME IOVERLAY, 0, STATIC
        ARGFRAME DOVERLAY, 0, STATIC
        FUNCALL GenericApp_ProcessEvent, getIDFromPkt
        LOCFRAME ISTACK, 0, STACK
        LOCFRAME PSTACK, 0, STACK
        LOCFRAME XSTACK, 282, STACK
        LOCFRAME IOVERLAY, 0, STATIC
        LOCFRAME DOVERLAY, 0, STATIC
        ARGFRAME ISTACK, 0, STACK
        ARGFRAME PSTACK, 0, STACK
        ARGFRAME XSTACK, 282, STACK
        ARGFRAME IOVERLAY, 0, STATIC
        ARGFRAME DOVERLAY, 0, STATIC
        FUNCALL GenericApp_ProcessEvent, getDataFromPkt
        LOCFRAME ISTACK, 0, STACK
        LOCFRAME PSTACK, 0, STACK
        LOCFRAME XSTACK, 282, STACK
        LOCFRAME IOVERLAY, 0, STATIC
        LOCFRAME DOVERLAY, 0, STATIC
        ARGFRAME ISTACK, 0, STACK
        ARGFRAME PSTACK, 0, STACK
        ARGFRAME XSTACK, 282, STACK
        ARGFRAME IOVERLAY, 0, STATIC
        ARGFRAME DOVERLAY, 0, STATIC
        FUNCALL GenericApp_ProcessEvent, updateLookUpTable
        LOCFRAME ISTACK, 0, STACK
        LOCFRAME PSTACK, 0, STACK
        LOCFRAME XSTACK, 289, STACK
        LOCFRAME IOVERLAY, 0, STATIC
        LOCFRAME DOVERLAY, 0, STATIC
        ARGFRAME ISTACK, 0, STACK
        ARGFRAME PSTACK, 0, STACK
        ARGFRAME XSTACK, 289, STACK
        ARGFRAME IOVERLAY, 0, STATIC
        ARGFRAME DOVERLAY, 0, STATIC
        FUNCALL GenericApp_ProcessEvent, osal_start_timerEx
        LOCFRAME ISTACK, 0, STACK
        LOCFRAME PSTACK, 0, STACK
        LOCFRAME XSTACK, 286, STACK
        LOCFRAME IOVERLAY, 0, STATIC
        LOCFRAME DOVERLAY, 0, STATIC
        ARGFRAME ISTACK, 0, STACK
        ARGFRAME PSTACK, 0, STACK
        ARGFRAME XSTACK, 286, STACK
        ARGFRAME IOVERLAY, 0, STATIC
        ARGFRAME DOVERLAY, 0, STATIC
        FUNCALL GenericApp_ProcessEvent, processFrameRx
        LOCFRAME ISTACK, 0, STACK
        LOCFRAME PSTACK, 0, STACK
        LOCFRAME XSTACK, 282, STACK
        LOCFRAME IOVERLAY, 0, STATIC
        LOCFRAME DOVERLAY, 0, STATIC
        ARGFRAME ISTACK, 0, STACK
        ARGFRAME PSTACK, 0, STACK
        ARGFRAME XSTACK, 282, STACK
        ARGFRAME IOVERLAY, 0, STATIC
        ARGFRAME DOVERLAY, 0, STATIC
        FUNCALL GenericApp_ProcessEvent, lookForAddr
        LOCFRAME ISTACK, 0, STACK
        LOCFRAME PSTACK, 0, STACK
        LOCFRAME XSTACK, 282, STACK
        LOCFRAME IOVERLAY, 0, STATIC
        LOCFRAME DOVERLAY, 0, STATIC
        ARGFRAME ISTACK, 0, STACK
        ARGFRAME PSTACK, 0, STACK
        ARGFRAME XSTACK, 282, STACK
        ARGFRAME IOVERLAY, 0, STATIC
        ARGFRAME DOVERLAY, 0, STATIC
        FUNCALL GenericApp_ProcessEvent, getCmd
        LOCFRAME ISTACK, 0, STACK
        LOCFRAME PSTACK, 0, STACK
        LOCFRAME XSTACK, 282, STACK
        LOCFRAME IOVERLAY, 0, STATIC
        LOCFRAME DOVERLAY, 0, STATIC
        ARGFRAME ISTACK, 0, STACK
        ARGFRAME PSTACK, 0, STACK
        ARGFRAME XSTACK, 282, STACK
        ARGFRAME IOVERLAY, 0, STATIC
        ARGFRAME DOVERLAY, 0, STATIC
        FUNCALL GenericApp_ProcessEvent, osal_strlen
        LOCFRAME ISTACK, 0, STACK
        LOCFRAME PSTACK, 0, STACK
        LOCFRAME XSTACK, 282, STACK
        LOCFRAME IOVERLAY, 0, STATIC
        LOCFRAME DOVERLAY, 0, STATIC
        ARGFRAME ISTACK, 0, STACK
        ARGFRAME PSTACK, 0, STACK
        ARGFRAME XSTACK, 282, STACK
        ARGFRAME IOVERLAY, 0, STATIC
        ARGFRAME DOVERLAY, 0, STATIC
        FUNCALL GenericApp_ProcessEvent, AF_DataRequest
        LOCFRAME ISTACK, 0, STACK
        LOCFRAME PSTACK, 0, STACK
        LOCFRAME XSTACK, 291, STACK
        LOCFRAME IOVERLAY, 0, STATIC
        LOCFRAME DOVERLAY, 0, STATIC
        ARGFRAME ISTACK, 0, STACK
        ARGFRAME PSTACK, 0, STACK
        ARGFRAME XSTACK, 291, STACK
        ARGFRAME IOVERLAY, 0, STATIC
        ARGFRAME DOVERLAY, 0, STATIC
        FUNCALL GenericApp_ProcessEvent, HalLedSet
        LOCFRAME ISTACK, 0, STACK
        LOCFRAME PSTACK, 0, STACK
        LOCFRAME XSTACK, 282, STACK
        LOCFRAME IOVERLAY, 0, STATIC
        LOCFRAME DOVERLAY, 0, STATIC
        ARGFRAME ISTACK, 0, STACK
        ARGFRAME PSTACK, 0, STACK
        ARGFRAME XSTACK, 282, STACK
        ARGFRAME IOVERLAY, 0, STATIC
        ARGFRAME DOVERLAY, 0, STATIC
        FUNCALL GenericApp_ProcessEvent, ZDP_EndDeviceBindReq
        LOCFRAME ISTACK, 0, STACK
        LOCFRAME PSTACK, 0, STACK
        LOCFRAME XSTACK, 291, STACK
        LOCFRAME IOVERLAY, 0, STATIC
        LOCFRAME DOVERLAY, 0, STATIC
        ARGFRAME ISTACK, 0, STACK
        ARGFRAME PSTACK, 0, STACK
        ARGFRAME XSTACK, 291, STACK
        ARGFRAME IOVERLAY, 0, STATIC
        ARGFRAME DOVERLAY, 0, STATIC
        FUNCALL GenericApp_ProcessEvent, osal_set_event
        LOCFRAME ISTACK, 0, STACK
        LOCFRAME PSTACK, 0, STACK
        LOCFRAME XSTACK, 282, STACK
        LOCFRAME IOVERLAY, 0, STATIC
        LOCFRAME DOVERLAY, 0, STATIC
        ARGFRAME ISTACK, 0, STACK
        ARGFRAME PSTACK, 0, STACK
        ARGFRAME XSTACK, 282, STACK
        ARGFRAME IOVERLAY, 0, STATIC
        ARGFRAME DOVERLAY, 0, STATIC
        FUNCALL GenericApp_ProcessEvent, sendDataToPC
        LOCFRAME ISTACK, 0, STACK
        LOCFRAME PSTACK, 0, STACK
        LOCFRAME XSTACK, 282, STACK
        LOCFRAME IOVERLAY, 0, STATIC
        LOCFRAME DOVERLAY, 0, STATIC
        ARGFRAME ISTACK, 0, STACK
        ARGFRAME PSTACK, 0, STACK
        ARGFRAME XSTACK, 282, STACK
        ARGFRAME IOVERLAY, 0, STATIC
        ARGFRAME DOVERLAY, 0, STATIC
        FUNCALL GenericApp_ProcessEvent, osal_start_timerEx
        LOCFRAME ISTACK, 0, STACK
        LOCFRAME PSTACK, 0, STACK
        LOCFRAME XSTACK, 286, STACK
        LOCFRAME IOVERLAY, 0, STATIC
        LOCFRAME DOVERLAY, 0, STATIC
        ARGFRAME ISTACK, 0, STACK
        ARGFRAME PSTACK, 0, STACK
        ARGFRAME XSTACK, 286, STACK
        ARGFRAME IOVERLAY, 0, STATIC
        ARGFRAME DOVERLAY, 0, STATIC
        REQUIRE ?V0
        REQUIRE ?V1
        REQUIRE ?V2
        REQUIRE ?V3
        REQUIRE ?V4
        REQUIRE ?V5
        REQUIRE ?V6
        REQUIRE ?V7
        MOV     A,#-0x10
        LCALL   ?BANKED_ENTER_XDATA
          CFI DPH0 load(1, XDATA, add(CFA_XSP16, literal(-1)))
          CFI DPL0 load(1, XDATA, add(CFA_XSP16, literal(-2)))
          CFI ?BRET_EXT load(1, XDATA, add(CFA_XSP16, literal(-3)))
          CFI ?RET_HIGH load(1, XDATA, add(CFA_XSP16, literal(-4)))
          CFI ?RET_LOW load(1, XDATA, add(CFA_XSP16, literal(-5)))
          CFI R7 load(1, XDATA, add(CFA_XSP16, literal(-6)))
          CFI V7 load(1, XDATA, add(CFA_XSP16, literal(-7)))
          CFI V6 load(1, XDATA, add(CFA_XSP16, literal(-8)))
          CFI V5 load(1, XDATA, add(CFA_XSP16, literal(-9)))
          CFI V4 load(1, XDATA, add(CFA_XSP16, literal(-10)))
          CFI V3 load(1, XDATA, add(CFA_XSP16, literal(-11)))
          CFI V2 load(1, XDATA, add(CFA_XSP16, literal(-12)))
          CFI V1 load(1, XDATA, add(CFA_XSP16, literal(-13)))
          CFI V0 load(1, XDATA, add(CFA_XSP16, literal(-14)))
          CFI VB load(1, XDATA, add(CFA_XSP16, literal(-15)))
          CFI R6 load(1, XDATA, add(CFA_XSP16, literal(-16)))
          CFI CFA_SP SP+0
          CFI CFA_XSP16 add(XSP16, 16)
        ; Saved register size: 16
        ; Auto size: 266
        MOV     DPL,#-0xa
        MOV     DPH,#-0x2
        LCALL   ?ADD_XSTACK_DISP0_16
          CFI CFA_XSP16 add(XSP16, 282)
        MOV     A,R2
        MOV     R6,A
        MOV     A,R3
        MOV     R7,A
//  383   afIncomingMSGPacket_t *MSGpkt;
//  384   afDataConfirm_t *afDataConfirm;
//  385   zAddrType_t dstAddr;
//  386 
//  387     //uint8 flag = 0;
//  388     //uint8 i;
//  389 
//  390 
//  391   // Data Confirmation message fields
//  392   byte sentEP;
//  393   ZStatus_t sentStatus;
//  394   byte sentTransID;       // This should match the value sent
//  395   (void)task_id;  // Intentionally unreferenced parameter
//  396 
//  397   if ( events & SYS_EVENT_MSG )
        ANL     A,#0x80
        JNZ     $+5
        LJMP    ??GenericApp_ProcessEvent_0 & 0xFFFF
//  398   {
//  399     MSGpkt = (afIncomingMSGPacket_t *)osal_msg_receive( GenericApp_TaskID );
        ; Setup parameters for call to function osal_msg_receive
        SJMP    ??GenericApp_ProcessEvent_1
//  400     
//  401    
//  402     while ( MSGpkt )
//  403     {
//  404       switch ( MSGpkt->hdr.event )
//  405       {
//  406         case ZDO_CB_MSG:
//  407           
//  408           GenericApp_ProcessZDOMsgs( (zdoIncomingMsg_t *)MSGpkt );
//  409           
//  410           break;
//  411 
//  412         case KEY_CHANGE:                                                        /////////////////////////////////////////////// case KEY_CHANGE: prazno ????????????????????????????
//  413 
//  414           break;
//  415 
//  416         case AF_DATA_CONFIRM_CMD:
//  417           // This message is received as a confirmation of a data packet sent.
//  418           // The status is of ZStatus_t type [defined in ZComDef.h]
//  419           // The message fields are defined in AF.h
//  420          
//  421           afDataConfirm = (afDataConfirm_t *)MSGpkt;
//  422 
//  423           sentEP = afDataConfirm->endpoint;
//  424           (void)sentEP;  // This info not used now
//  425           sentTransID = afDataConfirm->transID;
//  426           (void)sentTransID;  // This info not used now
//  427 
//  428           sentStatus = afDataConfirm->hdr.status;
//  429           // Action taken when confirmation is received.
//  430           if ( sentStatus != ZSuccess )
//  431           {
//  432             // The data wasn't delivered -- Do something
//  433           }
//  434           break;
//  435 
//  436         case AF_INCOMING_MSG_CMD:
//  437 ////////////////////////////////////////////////////////////////////////////////////////////////////////////////////          
//  438          /* if(0==brojac)
//  439           {
//  440            shortAddressOfEndDevice[brojac] = MSGpkt->macSrcAddr;
//  441            brojac++;
//  442           }
//  443           else
//  444           {
//  445             for(i = 0; i<brojac; i++)
//  446             {
//  447               if(shortAddressOfEndDevice[i]==MSGpkt->macSrcAddr)
//  448               {
//  449                 flag++;
//  450               }
//  451             }
//  452           
//  453             if(0 == flag)
//  454             {
//  455               shortAddressOfEndDevice[brojac] = MSGpkt->macSrcAddr;
//  456               brojac++;
//  457             }
//  458             else
//  459             {
//  460               flag = 0;
//  461             }
//  462           }
//  463           
//  464           for(i = 0; i<brojac; i++)
//  465           {
//  466             GenericApp_DstAddress[i].addrMode = (afAddrMode_t)Addr16Bit;
//  467             GenericApp_DstAddress[i].endPoint = GENERICAPP_ENDPOINT;
//  468             GenericApp_DstAddress[i].addr.shortAddr = shortAddressOfEndDevice[i];
//  469           }*/
//  470           
//  471          GenericApp_MessageMSGCB( MSGpkt );
//  472  ////////////////////////////////////////////////////////////////////////////////////////////////////////////////////        
//  473           break;
//  474 
//  475         case ZDO_STATE_CHANGE:
//  476            
//  477           GenericApp_NwkState = (devStates_t)(MSGpkt->hdr.status);
//  478           if ( (GenericApp_NwkState == DEV_ZB_COORD) ||
//  479                (GenericApp_NwkState == DEV_ROUTER) ||
//  480                (GenericApp_NwkState == DEV_END_DEVICE) )
//  481           {
//  482             
//  483            
//  484             // Start sending "the" message in a regular interval.
//  485             osal_start_timerEx( GenericApp_TaskID,
//  486                                 GENERICAPP_SEND_MSG_EVT,
//  487                                 txMsgDelay );
//  488           }
//  489                       
//  490           break;
//  491 
//  492         default:
//  493            
//  494           
//  495             osal_set_event(GenericApp_TaskID,GENERICAPP_SEND_MSG_EVT);
??GenericApp_ProcessEvent_2:
        ; Setup parameters for call to function osal_set_event
        MOV     R2,#0x1
        MOV     R3,#0x0
        MOV     DPTR,#GenericApp_TaskID
        MOVX    A,@DPTR
        MOV     R1,A
        LCALL   `??osal_set_event::?relay`; Banked call to: osal_set_event
//  496            break;
//  497       }
//  498 
//  499       // Release the memory
//  500       osal_msg_deallocate( (uint8 *)MSGpkt );
??GenericApp_ProcessEvent_3:
        ; Setup parameters for call to function osal_msg_deallocate
        MOV     R2,?V0
        MOV     R3,?V1
        LCALL   `??osal_msg_deallocate::?relay`; Banked call to: osal_msg_deallocate
//  501 
//  502       // Next
//  503       MSGpkt = (afIncomingMSGPacket_t *)osal_msg_receive( GenericApp_TaskID );
        ; Setup parameters for call to function osal_msg_receive
??GenericApp_ProcessEvent_1:
        MOV     DPTR,#GenericApp_TaskID
        MOVX    A,@DPTR
        MOV     R1,A
        LCALL   `??osal_msg_receive::?relay`; Banked call to: osal_msg_receive
        MOV     ?V0,R2
        MOV     ?V1,R3
        MOV     A,?V0
        ORL     A,?V1
        JNZ     $+5
        LJMP    ??GenericApp_ProcessEvent_4 & 0xFFFF
        MOV     DPL,?V0
        MOV     DPH,?V1
        MOVX    A,@DPTR
        ADD     A,#-0x1a
        JNZ     $+5
        LJMP    ??GenericApp_ProcessEvent_5 & 0xFFFF
        ADD     A,#0x5a
        JZ      ??GenericApp_ProcessEvent_3
        ADD     A,#-0x11
        JNZ     $+5
        LJMP    ??GenericApp_ProcessEvent_6 & 0xFFFF
        ADD     A,#-0x2
        JZ      ??GenericApp_ProcessEvent_7
        ADD     A,#-0x2a
        JZ      ??GenericApp_ProcessEvent_3
        SJMP    ??GenericApp_ProcessEvent_2
??GenericApp_ProcessEvent_7:
        MOV     A,?V0
        ADD     A,#0xc
        MOV     DPL,A
        CLR     A
        ADDC    A,?V1
        MOV     DPH,A
        MOVX    A,@DPTR
        MOV     ?V2,A
        INC     DPTR
        MOVX    A,@DPTR
        MOV     ?V3,A
        MOV     R0,#?V2
        LCALL   ?US_SWITCH_SPARSE
`?<Jumptable for GenericApp_ProcessEvent>_0`:
        DATA
        DATA16
        DATA
        DATA16
        DATA
        DATA16
        DW        0
        DATA
        DATA16
        DATA
        DATA16
        DATA
        DATA16
        DW        2
        DATA
        DATA16
        DATA
        DATA16
        DATA
        DATA16
        DW        32774
        DATA
        DATA16
        DATA
        DATA16
        DATA
        DATA16
        DW        ??GenericApp_ProcessEvent_8
        DATA
        DATA16
        DATA
        DATA16
        DATA
        DATA16
        DW        32800
        DATA
        DATA16
        DATA
        DATA16
        DATA
        DATA16
        DW        ??GenericApp_ProcessEvent_9
        DATA
        DATA16
        DATA
        DATA16
        DW        ??GenericApp_ProcessEvent_3
        CODE
??GenericApp_ProcessEvent_8:
        ; Setup parameters for call to function HalLcdWriteString
        MOV     R1,#0x0
        MOV     R2,#`?<Constant "End Device Match Desc">` & 0xff
        MOV     R3,#(`?<Constant "End Device Match Desc">` >> 8) & 0xff
        LCALL   `??HalLcdWriteString::?relay`; Banked call to: HalLcdWriteString
        ; Setup parameters for call to function ZDO_ParseEPListRsp
        MOV     R2,?V0
        MOV     R3,?V1
        LCALL   `??ZDO_ParseEPListRsp::?relay`; Banked call to: ZDO_ParseEPListRsp
        MOV     ?V2,R2
        MOV     ?V3,R3
        MOV     A,R2
        ORL     A,?V3
        JZ      ??GenericApp_ProcessEvent_3
        MOV     DPL,R2
        MOV     DPH,R3
        MOVX    A,@DPTR
        JNZ     ??GenericApp_ProcessEvent_10
        INC     DPTR
        INC     DPTR
        INC     DPTR
        MOVX    A,@DPTR
        JZ      ??GenericApp_ProcessEvent_10
        MOV     DPTR,#GenericApp_DstAddr + 8
        MOV     A,#0x2
        LCALL   ?Subroutine2 & 0xFFFF
??CrossCallReturnLabel_6:
        MOVX    A,@DPTR
        MOV     R0,A
        INC     DPTR
        MOVX    A,@DPTR
        MOV     R1,A
        MOV     DPTR,#GenericApp_DstAddr
        MOV     A,R0
        MOVX    @DPTR,A
        INC     DPTR
        MOV     A,R1
        LCALL   ?Subroutine1 & 0xFFFF
??CrossCallReturnLabel_3:
        MOVX    A,@DPTR
        MOV     DPTR,#GenericApp_DstAddr + 9
        MOVX    @DPTR,A
        ; Setup parameters for call to function HalLedSet
        MOV     R2,#0x1
        MOV     R1,#0x8
        LCALL   `??HalLedSet::?relay`; Banked call to: HalLedSet
??GenericApp_ProcessEvent_10:
        ; Setup parameters for call to function osal_mem_free
        MOV     R2,?V2
        MOV     R3,?V3
        LCALL   `??osal_mem_free::?relay`; Banked call to: osal_mem_free
        LJMP    ??GenericApp_ProcessEvent_3 & 0xFFFF
??GenericApp_ProcessEvent_9:
        MOV     A,?V0
        ADD     A,#0x13
        MOV     DPL,A
        CLR     A
        ADDC    A,?V1
        MOV     DPH,A
        MOVX    A,@DPTR
        MOV     R0,A
        INC     DPTR
        MOVX    A,@DPTR
        MOV     DPH,A
        MOV     DPL,R0
        MOVX    A,@DPTR
        JNZ     ??GenericApp_ProcessEvent_11
        ; Setup parameters for call to function HalLedSet
        MOV     R2,#0x1
??GenericApp_ProcessEvent_12:
        MOV     R1,#0x8
        LCALL   `??HalLedSet::?relay`; Banked call to: HalLedSet
        LJMP    ??GenericApp_ProcessEvent_3 & 0xFFFF
??GenericApp_ProcessEvent_11:
        ; Setup parameters for call to function HalLedSet
        MOV     R2,#0x4
        SJMP    ??GenericApp_ProcessEvent_12
??GenericApp_ProcessEvent_5:
        INC     DPTR
        INC     DPTR
        INC     DPTR
        INC     DPTR
        MOVX    A,@DPTR
        XRL     A,#0x1
        JNZ     ??GenericApp_ProcessEvent_13
        INC     DPTR
        MOVX    A,@DPTR
??GenericApp_ProcessEvent_13:
        JZ      $+5
        LJMP    ??GenericApp_ProcessEvent_3 & 0xFFFF
        MOV     DPTR,#rxMsgCount
        MOVX    A,@DPTR
        ADD     A,#0x1
        MOVX    @DPTR,A
        INC     DPTR
        MOVX    A,@DPTR
        ADDC    A,#0x0
        MOVX    @DPTR,A
        ; Setup parameters for call to function HalLedSet
        MOV     R2,#0x2
        MOV     R1,#0x8
        LCALL   `??HalLedSet::?relay`; Banked call to: HalLedSet
        MOV     A,?V0
        ADD     A,#0x1f
        MOV     ?V2,A
        CLR     A
        ADDC    A,?V1
        MOV     ?V3,A
        ; Setup parameters for call to function getIDFromPkt
        MOV     R2,?V2
        MOV     R3,A
        LCALL   `??getIDFromPkt::?relay`; Banked call to: getIDFromPkt
        MOV     DPL,?XSP + 0
        MOV     DPH,?XSP + 1
        MOV     A,R2
        MOVX    @DPTR,A
        INC     DPTR
        MOV     A,R3
        MOVX    @DPTR,A
        ; Setup parameters for call to function getDataFromPkt
        MOV     R2,?V2
        MOV     R3,?V3
        LCALL   `??getDataFromPkt::?relay`; Banked call to: getDataFromPkt
        MOV     A,R2
        MOV     R0,A
        MOV     A,R3
        MOV     R1,A
        MOV     A,R4
        MOV     R2,A
        MOV     A,R5
        MOV     R3,A
        MOV     A,#0x3
        LCALL   ?XSTACK_DISP0_8
        LCALL   ?XSTORE_R0123
        ; Setup parameters for call to function updateLookUpTable
        MOV     DPL,?XSP + 0
        MOV     DPH,?XSP + 1
        MOV     A,#0x7
        LCALL   ?PUSH_XSTACK8_X
          CFI CFA_XSP16 add(XSP16, 289)
        MOV     A,?V0
        ADD     A,#0x24
        MOV     DPL,A
        CLR     A
        ADDC    A,?V1
        MOV     DPH,A
        MOVX    A,@DPTR
        MOV     R2,A
        INC     DPTR
        MOVX    A,@DPTR
        MOV     R3,A
        LCALL   `??updateLookUpTable::?relay`; Banked call to: updateLookUpTable
        MOV     A,#0x7
        LCALL   ?DEALLOC_XSTACK8
          CFI CFA_XSP16 add(XSP16, 282)
        LJMP    ??GenericApp_ProcessEvent_3 & 0xFFFF
??GenericApp_ProcessEvent_6:
        INC     DPTR
        MOVX    A,@DPTR
        MOV     DPTR,#GenericApp_NwkState
        MOVX    @DPTR,A
        XRL     A,#0x9
        JZ      ??GenericApp_ProcessEvent_14
        MOVX    A,@DPTR
        XRL     A,#0x7
        JZ      ??GenericApp_ProcessEvent_14
        MOVX    A,@DPTR
        XRL     A,#0x6
        JZ      $+5
        LJMP    ??GenericApp_ProcessEvent_3 & 0xFFFF
??GenericApp_ProcessEvent_14:
        ; Setup parameters for call to function osal_start_timerEx
        MOV     DPTR,#txMsgDelay
        LCALL   ?PUSH_XSTACK8_X_FOUR
          CFI CFA_XSP16 add(XSP16, 286)
        MOV     R2,#0x1
        MOV     R3,#0x0
        MOV     DPTR,#GenericApp_TaskID
        MOVX    A,@DPTR
        MOV     R1,A
        LCALL   `??osal_start_timerEx::?relay`; Banked call to: osal_start_timerEx
        MOV     A,#0x4
        LCALL   ?DEALLOC_XSTACK8
          CFI CFA_XSP16 add(XSP16, 282)
        LJMP    ??GenericApp_ProcessEvent_3 & 0xFFFF
//  504         
//  505     }
//  506 
//  507     // return unprocessed events
//  508     return (events ^ SYS_EVENT_MSG);
??GenericApp_ProcessEvent_4:
        MOV     A,R6
        MOV     R2,A
        MOV     A,R7
        XRL     A,#0x80
        LJMP    ??GenericApp_ProcessEvent_15 & 0xFFFF
//  509   }
//  510 
//  511   // Send a message out - This event is generated by a timer
//  512   //  (setup in GenericApp_Init()).
//  513   
//  514  /////////////////////////////////////////////////////////////////////////////////////////////////////////////////// 
//  515   if ( events & RX_PROCCESS_EVENT )
??GenericApp_ProcessEvent_0:
        MOV     A,R7
        ANL     A,#0x1
        JNZ     $+5
        LJMP    ??GenericApp_ProcessEvent_16 & 0xFFFF
//  516   {
//  517     /*
//  518     uint8 i;
//  519     uint16 *pdevID;
//  520     uint32 *pData;
//  521     uint16 devID;
//  522     
//  523     uint8 *p;
//  524     */
//  525     uint16 ID;
//  526     uint32 Data;
//  527     char theMessage[MAX_NUMBER_OF_ENDDEVICES][25];
//  528 
//  529 
//  530     
//  531     ID = processFrameRx(rxBuffer);
        ; Setup parameters for call to function processFrameRx
        MOV     DPTR,#rxBuffer
        MOVX    A,@DPTR
        MOV     R2,A
        INC     DPTR
        MOVX    A,@DPTR
        MOV     R3,A
        LCALL   `??processFrameRx::?relay`; Banked call to: processFrameRx
        MOV     ?V0,R2
        MOV     ?V1,R3
//  532     
//  533     
//  534     GenericApp_DstAddress.addrMode = (afAddrMode_t)Addr16Bit;
        MOV     DPTR,#GenericApp_DstAddress + 8
        MOV     A,#0x2
        MOVX    @DPTR,A
//  535     GenericApp_DstAddress.endPoint = GENERICAPP_ENDPOINT;
        INC     DPTR
        MOV     A,#0xa
        MOVX    @DPTR,A
//  536     GenericApp_DstAddress.addr.shortAddr = lookForAddr(ID);
        ; Setup parameters for call to function lookForAddr
        LCALL   `??lookForAddr::?relay`; Banked call to: lookForAddr
        MOV     DPTR,#GenericApp_DstAddress
        MOV     A,R2
        MOVX    @DPTR,A
        INC     DPTR
        MOV     A,R3
        MOVX    @DPTR,A
//  537     
//  538    /* 
//  539     pdevID = &devID;
//  540     pData = &Data;
//  541     *pdevID = ID;
//  542     *pData = getCmd(ID);
//  543     */
//  544     Data = getCmd(ID);
        ; Setup parameters for call to function getCmd
        MOV     R2,?V0
        MOV     R3,?V1
        LCALL   `??getCmd::?relay`   ; Banked call to: getCmd
        MOV     ?V4,R2
        MOV     ?V5,R3
//  545     
//  546     //p = &
//  547 
//  548     theMessage[GenericApp_DstAddress.addr.shortAddr][0] = (char)((ID >> 8) & 0x00FF);
        LCALL   ?Subroutine0 & 0xFFFF
??CrossCallReturnLabel_0:
        MOV     R2,B
        MOV     B,#0x19
        MOV     A,R1
        MUL     AB
        ADD     A,R2
        MOV     R1,A
        MOV     A,#0x10
        LCALL   ?XSTACK_DISP0_8
        MOV     A,DPL
        ADD     A,R0
        MOV     R2,A
        MOV     A,DPH
        ADDC    A,R1
        MOV     R3,A
        MOV     DPL,R2
        MOV     DPH,R3
        MOV     A,?V1
        MOVX    @DPTR,A
//  549     theMessage[GenericApp_DstAddress.addr.shortAddr][1] = (char)(ID & 0x00FF); 
        INC     DPTR
        MOV     A,?V0
        LCALL   ?Subroutine2 & 0xFFFF
//  550    /* for(i = 0; i < 2; i++)
//  551     {
//  552       theMessage[GenericApp_DstAddress.addr.shortAddr][i] = (char)pdevID[i-1];
//  553     }*/
//  554     theMessage[GenericApp_DstAddress.addr.shortAddr][2] = (char)((Data >> 24) & 0x000000FF);
??CrossCallReturnLabel_4:
        INC     DPTR
        MOV     A,R5
        LCALL   ?Subroutine2 & 0xFFFF
//  555     theMessage[GenericApp_DstAddress.addr.shortAddr][3] = (char)((Data >> 16) & 0x000000FF); 
??CrossCallReturnLabel_5:
        INC     DPTR
        INC     DPTR
        MOV     A,R4
        MOVX    @DPTR,A
//  556     theMessage[GenericApp_DstAddress.addr.shortAddr][4] = (char)((Data >> 8) & 0x000000FF);
        MOV     ?V1,?V5
        MOV     A,?V1
        MOV     DPL,R2
        MOV     DPH,R3
        INC     DPTR
        INC     DPTR
        INC     DPTR
        INC     DPTR
        LCALL   ?Subroutine1 & 0xFFFF
//  557     theMessage[GenericApp_DstAddress.addr.shortAddr][5] = (char)(Data & 0x000000FF); 
??CrossCallReturnLabel_2:
        INC     DPTR
        MOV     A,?V4
        MOVX    @DPTR,A
//  558    /* for(i = 2; i < 6; i++)
//  559     {
//  560       theMessage[GenericApp_DstAddress.addr.shortAddr][i] = (char)pData[i-4];
//  561     }
//  562 */
//  563 
//  564     if ( AF_DataRequest( &GenericApp_DstAddress, &GenericApp_epDesc,
//  565                            GENERICAPP_CLUSTERID,
//  566                            (byte)osal_strlen( theMessage[GenericApp_DstAddress.addr.shortAddr] ) + 1,
//  567                            (byte *)&theMessage[GenericApp_DstAddress.addr.shortAddr],
//  568                            &GenericApp_TransID,
//  569                            AF_DISCV_ROUTE, AF_DEFAULT_RADIUS ) == afStatus_SUCCESS )
        ; Setup parameters for call to function osal_strlen
        LCALL   `??osal_strlen::?relay`; Banked call to: osal_strlen
        ; Setup parameters for call to function AF_DataRequest
        MOV     ?V0,#0x1e
        MOV     R0,#?V0
        LCALL   ?PUSH_XSTACK_I_ONE
          CFI CFA_XSP16 add(XSP16, 283)
        MOV     ?V0,#GenericApp_TransID & 0xff
        MOV     ?V1,#(GenericApp_TransID >> 8) & 0xff
        MOV     R0,#?V0
        LCALL   ?PUSH_XSTACK_I_TWO
          CFI CFA_XSP16 add(XSP16, 285)
        LCALL   ?Subroutine0 & 0xFFFF
??CrossCallReturnLabel_1:
        MOV     R4,B
        MOV     B,#0x19
        MOV     A,R1
        MUL     AB
        ADD     A,R4
        MOV     R1,A
        MOV     A,#0x13
        LCALL   ?XSTACK_DISP0_8
        MOV     A,DPL
        ADD     A,R0
        MOV     ?V0,A
        MOV     A,DPH
        ADDC    A,R1
        MOV     ?V1,A
        MOV     R0,#?V0
        LCALL   ?PUSH_XSTACK_I_TWO
          CFI CFA_XSP16 add(XSP16, 287)
        MOV     A,R2
        ADD     A,#0x1
        MOV     ?V0,A
        CLR     A
        ADDC    A,#0x0
        MOV     ?V1,A
        MOV     R0,#?V0
        LCALL   ?PUSH_XSTACK_I_TWO
          CFI CFA_XSP16 add(XSP16, 289)
        MOV     ?V0,#0x1
        MOV     ?V1,#0x0
        MOV     R0,#?V0
        LCALL   ?PUSH_XSTACK_I_TWO
          CFI CFA_XSP16 add(XSP16, 291)
        MOV     R1,#0x0
        MOV     R4,#GenericApp_epDesc & 0xff
        MOV     R5,#(GenericApp_epDesc >> 8) & 0xff
        MOV     R2,#GenericApp_DstAddress & 0xff
        MOV     R3,#(GenericApp_DstAddress >> 8) & 0xff
        LCALL   `??AF_DataRequest::?relay`; Banked call to: AF_DataRequest
        MOV     A,#0x9
        LCALL   ?DEALLOC_XSTACK8
          CFI CFA_XSP16 add(XSP16, 282)
        MOV     A,R1
        JNZ     ??GenericApp_ProcessEvent_16
//  570       {
//  571         HalLedSet ( HAL_LED_4, HAL_LED_MODE_BLINK );  // Blink an LED
        ; Setup parameters for call to function HalLedSet
        MOV     R2,#0x2
        MOV     R1,#0x8
        LCALL   `??HalLedSet::?relay`; Banked call to: HalLedSet
//  572       }
//  573 
//  574   }
//  575     
//  576   ///////////////////////////////////////////////////////////////////////////////////////////////////////////////////  
//  577     
//  578   if ( events & GENERICAPP_SEND_MSG_EVT )
??GenericApp_ProcessEvent_16:
        MOV     A,R6
        MOV     C,0xE0 /* A   */.0
        JC      $+5
        LJMP    ??GenericApp_ProcessEvent_17 & 0xFFFF
//  579   {
//  580     if(keyPressSW4)
        MOV     DPTR,#keyPressSW4
        MOVX    A,@DPTR
        JZ      ??GenericApp_ProcessEvent_18
//  581     {
//  582       
//  583       dstAddr.addrMode = Addr16Bit;
        MOV     A,#0xf
        LCALL   ?XSTACK_DISP0_8
        MOV     A,#0x2
        MOVX    @DPTR,A
//  584       dstAddr.addr.shortAddr = 0x0000;//NLME_GetShortAddr();//0x0000; // Coordinator
        MOV     A,#0x7
        LCALL   ?XSTACK_DISP0_8
        CLR     A
        MOVX    @DPTR,A
        INC     DPTR
        MOVX    @DPTR,A
//  585       ZDP_EndDeviceBindReq( &dstAddr, 0x0000, //NLME_GetShortAddr(),
//  586                             GenericApp_epDesc.endPoint,
//  587                             GENERICAPP_PROFID,
//  588                             GENERICAPP_MAX_CLUSTERS, (cId_t *)GenericApp_ClusterList,
//  589                             GENERICAPP_MAX_CLUSTERS, (cId_t *)GenericApp_ClusterList,
//  590                             FALSE );
        MOV     ?V0,#GenericApp_ClusterList & 0xff
        MOV     ?V1,#(GenericApp_ClusterList >> 8) & 0xff
        ; Setup parameters for call to function ZDP_EndDeviceBindReq
        MOV     ?V2,A
        MOV     R0,#?V2
        LCALL   ?PUSH_XSTACK_I_ONE
          CFI CFA_XSP16 add(XSP16, 283)
        MOV     R0,#?V0
        LCALL   ?PUSH_XSTACK_I_TWO
          CFI CFA_XSP16 add(XSP16, 285)
        MOV     ?V2,#0x1
        MOV     R0,#?V2
        LCALL   ?PUSH_XSTACK_I_ONE
          CFI CFA_XSP16 add(XSP16, 286)
        MOV     R0,#?V0
        LCALL   ?PUSH_XSTACK_I_TWO
          CFI CFA_XSP16 add(XSP16, 288)
        MOV     ?V0,#0x1
        MOV     R0,#?V0
        LCALL   ?PUSH_XSTACK_I_ONE
          CFI CFA_XSP16 add(XSP16, 289)
        MOV     ?V0,#0x4
        MOV     ?V1,#0xf
        MOV     R0,#?V0
        LCALL   ?PUSH_XSTACK_I_TWO
          CFI CFA_XSP16 add(XSP16, 291)
        MOV     DPTR,#GenericApp_epDesc
        MOVX    A,@DPTR
        MOV     R1,A
        MOV     R4,#0x0
        MOV     R5,#0x0
        MOV     A,#0x10
        LCALL   ?XSTACK_DISP101_8
        LCALL   `??ZDP_EndDeviceBindReq::?relay`; Banked call to: ZDP_EndDeviceBindReq
        MOV     A,#0x9
        LCALL   ?DEALLOC_XSTACK8
          CFI CFA_XSP16 add(XSP16, 282)
//  591       
//  592       keyPressSW4 = 0;
        MOV     DPTR,#keyPressSW4
        CLR     A
        MOVX    @DPTR,A
//  593       
//  594       osal_set_event(GenericApp_TaskID,GENERICAPP_SEND_MSG_EVT);
        ; Setup parameters for call to function osal_set_event
        MOV     R2,#0x1
        MOV     R3,A
        MOV     DPTR,#GenericApp_TaskID
        MOVX    A,@DPTR
        MOV     R1,A
        LCALL   `??osal_set_event::?relay`; Banked call to: osal_set_event
        SJMP    ??GenericApp_ProcessEvent_19
//  595       
//  596     }
//  597     else
//  598     {
//  599       //uint8 l=0;
//  600       //for(int i=0; i< len; i++)                             //*buff != NULL)
//  601        //HalUARTOpen(HAL_UART_PORT_0, &uartConfig);
//  602      //HalUARTRead(HAL_UART_PORT_0, buff, 2);
//  603      //if(HalUARTRead(HAL_UART_PORT_0, buff, 2))
//  604       //buff[i] = U0DBUF;   
//  605        // buff[l] = uartGet();
//  606       /*while(buff[l]!='\0')
//  607       {
//  608         
//  609         *buff = uartGet(); 
//  610         buff++;
//  611         l++;
//  612       }*/
//  613       //if(l==0)
//  614       //HalLcdRead(buff, 1);
//  615       //buff++;
//  616       
//  617  //////////////////////////////////////////////////////////////////////////////
//  618       //HalLcdRead(buff, 1);    //zakomentarisao
//  619       
//  620 ///////////////////////////////////////////////////////////////////////////////
//  621       //HalLcdWriteString("Sinisa",0); 
//  622       //if(buff[0]='\0')
//  623     /*  for(i = 0;i <3;i++)
//  624           {
//  625             uartSend(*(buff + i));
//  626           }
//  627       
//  628           HalLcdWriteString("",0);
//  629           HalLcdWriteString("--------------------------------",0);
//  630         */
//  631 //////////////////////////////////////////////////////////////////////////////
//  632     // if((char)*buff!='\0') //zakomentarisao
//  633      {
//  634        GenericApp_SendTheMessage();
??GenericApp_ProcessEvent_18:
        MOV     ?V0,#0x0
??GenericApp_ProcessEvent_20:
        MOV     A,?V0
        MOV     B,#0xa
        MUL     AB
        MOV     R0,A
        MOV     R2,B
        MOV     A,R2
        MOV     R1,A
        MOV     A,#lutData & 0xff
        ADD     A,R0
        MOV     DPL,A
        MOV     A,#(lutData >> 8) & 0xff
        ADDC    A,R1
        MOV     DPH,A
        MOVX    A,@DPTR
        MOV     R0,A
        INC     DPTR
        MOVX    A,@DPTR
        MOV     R1,A
        MOV     A,R0
        ORL     A,R1
        JZ      ??GenericApp_ProcessEvent_21
        ; Setup parameters for call to function sendDataToPC
        MOV     A,?V0
        MOV     B,#0xa
        MUL     AB
        MOV     R0,A
        MOV     A,R2
        MOV     R1,A
        MOV     A,#lutData & 0xff
        ADD     A,R0
        MOV     R2,A
        MOV     A,#(lutData >> 8) & 0xff
        ADDC    A,R1
        MOV     R3,A
        LCALL   `??sendDataToPC::?relay`; Banked call to: sendDataToPC
??GenericApp_ProcessEvent_21:
        INC     ?V0
        MOV     A,?V0
        CLR     C
        SUBB    A,#0x14
        JC      ??GenericApp_ProcessEvent_20
//  635        //HalLcdWriteString("Sile before send",0);
//  636      }
//  637     
//  638 //////////////////////////////////////////////////////////////////////////////
//  639      
//  640      
//  641      
//  642     // Send "the" message
//  643      //GenericApp_SendTheMessage();                                              //////////////////////////////////////////////////////////////////////////////////////////////////
//  644      
//  645      //Setup to send message again
//  646      osal_start_timerEx( GenericApp_TaskID,
//  647                          GENERICAPP_SEND_MSG_EVT,
//  648                          1000); //txMsgDelay );
        ; Setup parameters for call to function osal_start_timerEx
        MOV     DPTR,#__Constant_3e8
        LCALL   ?PUSH_XSTACK8_X_FOUR
          CFI CFA_XSP16 add(XSP16, 286)
        MOV     R2,#0x1
        MOV     R3,#0x0
        MOV     DPTR,#GenericApp_TaskID
        MOVX    A,@DPTR
        MOV     R1,A
        LCALL   `??osal_start_timerEx::?relay`; Banked call to: osal_start_timerEx
        MOV     A,#0x4
        LCALL   ?DEALLOC_XSTACK8
          CFI CFA_XSP16 add(XSP16, 282)
//  649     
//  650     // osal_set_event(GenericApp_TaskID,GENERICAPP_SEND_MSG_EVT);
//  651     
//  652     }
//  653     // return unprocessed events
//  654     return (events ^ GENERICAPP_SEND_MSG_EVT);
??GenericApp_ProcessEvent_19:
        MOV     A,R6
        XRL     A,#0x1
        MOV     R2,A
        MOV     A,R7
??GenericApp_ProcessEvent_15:
        MOV     R3,A
        SJMP    ??GenericApp_ProcessEvent_22
//  655   }
//  656 
//  657 #if defined( IAR_ARMCM3_LM )
//  658   // Receive a message from the RTOS queue
//  659   if ( events & GENERICAPP_RTOS_MSG_EVT )
//  660   {
//  661     // Process message from RTOS queue
//  662     GenericApp_ProcessRtosMessage();
//  663 
//  664     // return unprocessed events
//  665     return (events ^ GENERICAPP_RTOS_MSG_EVT);
//  666   }
//  667 #endif
//  668 
//  669   // Discard unknown events
//  670   return 0;
??GenericApp_ProcessEvent_17:
        MOV     R2,#0x0
        MOV     R3,#0x0
??GenericApp_ProcessEvent_22:
        MOV     DPL,#0xa
        MOV     DPH,#0x1
        LCALL   ?ADD_XSTACK_DISP0_16
          CFI CFA_XSP16 add(XSP16, 16)
        MOV     R7,#0x8
        LJMP    ?BANKED_LEAVE_XDATA
//  671 }
          CFI EndBlock cfiBlock1

        RSEG BANKED_CODE:HUGECODE:NOROOT(0)
?Subroutine2:
          CFI Block cfiCond2 Using cfiCommon0
          CFI Function GenericApp_ProcessEvent
          CFI Conditional ??CrossCallReturnLabel_6
          CFI R6 load(1, XDATA, add(CFA_XSP16, literal(-16)))
          CFI VB load(1, XDATA, add(CFA_XSP16, literal(-15)))
          CFI V0 load(1, XDATA, add(CFA_XSP16, literal(-14)))
          CFI V1 load(1, XDATA, add(CFA_XSP16, literal(-13)))
          CFI V2 load(1, XDATA, add(CFA_XSP16, literal(-12)))
          CFI V3 load(1, XDATA, add(CFA_XSP16, literal(-11)))
          CFI V4 load(1, XDATA, add(CFA_XSP16, literal(-10)))
          CFI V5 load(1, XDATA, add(CFA_XSP16, literal(-9)))
          CFI V6 load(1, XDATA, add(CFA_XSP16, literal(-8)))
          CFI V7 load(1, XDATA, add(CFA_XSP16, literal(-7)))
          CFI R7 load(1, XDATA, add(CFA_XSP16, literal(-6)))
          CFI ?RET_LOW load(1, XDATA, add(CFA_XSP16, literal(-5)))
          CFI ?RET_HIGH load(1, XDATA, add(CFA_XSP16, literal(-4)))
          CFI ?BRET_EXT load(1, XDATA, add(CFA_XSP16, literal(-3)))
          CFI DPL0 load(1, XDATA, add(CFA_XSP16, literal(-2)))
          CFI DPH0 load(1, XDATA, add(CFA_XSP16, literal(-1)))
          CFI CFA_SP SP+-2
          CFI CFA_XSP16 add(XSP16, 282)
          CFI Block cfiCond3 Using cfiCommon0
          CFI (cfiCond3) Function GenericApp_ProcessEvent
          CFI (cfiCond3) Conditional ??CrossCallReturnLabel_4
          CFI (cfiCond3) R6 load(1, XDATA, add(CFA_XSP16, literal(-16)))
          CFI (cfiCond3) VB load(1, XDATA, add(CFA_XSP16, literal(-15)))
          CFI (cfiCond3) V0 load(1, XDATA, add(CFA_XSP16, literal(-14)))
          CFI (cfiCond3) V1 load(1, XDATA, add(CFA_XSP16, literal(-13)))
          CFI (cfiCond3) V2 load(1, XDATA, add(CFA_XSP16, literal(-12)))
          CFI (cfiCond3) V3 load(1, XDATA, add(CFA_XSP16, literal(-11)))
          CFI (cfiCond3) V4 load(1, XDATA, add(CFA_XSP16, literal(-10)))
          CFI (cfiCond3) V5 load(1, XDATA, add(CFA_XSP16, literal(-9)))
          CFI (cfiCond3) V6 load(1, XDATA, add(CFA_XSP16, literal(-8)))
          CFI (cfiCond3) V7 load(1, XDATA, add(CFA_XSP16, literal(-7)))
          CFI (cfiCond3) R7 load(1, XDATA, add(CFA_XSP16, literal(-6)))
          CFI (cfiCond3) ?RET_LOW load(1, XDATA, add(CFA_XSP16, literal(-5)))
          CFI (cfiCond3) ?RET_HIGH load(1, XDATA, add(CFA_XSP16, literal(-4)))
          CFI (cfiCond3) ?BRET_EXT load(1, XDATA, add(CFA_XSP16, literal(-3)))
          CFI (cfiCond3) DPL0 load(1, XDATA, add(CFA_XSP16, literal(-2)))
          CFI (cfiCond3) DPH0 load(1, XDATA, add(CFA_XSP16, literal(-1)))
          CFI (cfiCond3) CFA_SP SP+-2
          CFI (cfiCond3) CFA_XSP16 add(XSP16, 282)
          CFI Block cfiCond4 Using cfiCommon0
          CFI (cfiCond4) Function GenericApp_ProcessEvent
          CFI (cfiCond4) Conditional ??CrossCallReturnLabel_5
          CFI (cfiCond4) R6 load(1, XDATA, add(CFA_XSP16, literal(-16)))
          CFI (cfiCond4) VB load(1, XDATA, add(CFA_XSP16, literal(-15)))
          CFI (cfiCond4) V0 load(1, XDATA, add(CFA_XSP16, literal(-14)))
          CFI (cfiCond4) V1 load(1, XDATA, add(CFA_XSP16, literal(-13)))
          CFI (cfiCond4) V2 load(1, XDATA, add(CFA_XSP16, literal(-12)))
          CFI (cfiCond4) V3 load(1, XDATA, add(CFA_XSP16, literal(-11)))
          CFI (cfiCond4) V4 load(1, XDATA, add(CFA_XSP16, literal(-10)))
          CFI (cfiCond4) V5 load(1, XDATA, add(CFA_XSP16, literal(-9)))
          CFI (cfiCond4) V6 load(1, XDATA, add(CFA_XSP16, literal(-8)))
          CFI (cfiCond4) V7 load(1, XDATA, add(CFA_XSP16, literal(-7)))
          CFI (cfiCond4) R7 load(1, XDATA, add(CFA_XSP16, literal(-6)))
          CFI (cfiCond4) ?RET_LOW load(1, XDATA, add(CFA_XSP16, literal(-5)))
          CFI (cfiCond4) ?RET_HIGH load(1, XDATA, add(CFA_XSP16, literal(-4)))
          CFI (cfiCond4) ?BRET_EXT load(1, XDATA, add(CFA_XSP16, literal(-3)))
          CFI (cfiCond4) DPL0 load(1, XDATA, add(CFA_XSP16, literal(-2)))
          CFI (cfiCond4) DPH0 load(1, XDATA, add(CFA_XSP16, literal(-1)))
          CFI (cfiCond4) CFA_SP SP+-2
          CFI (cfiCond4) CFA_XSP16 add(XSP16, 282)
          CFI Block cfiPicker5 Using cfiCommon1
          CFI (cfiPicker5) NoFunction
          CFI (cfiPicker5) Picker
        MOVX    @DPTR,A
        MOV     DPL,R2
        MOV     DPH,R3
        INC     DPTR
        RET
          CFI EndBlock cfiCond2
          CFI EndBlock cfiCond3
          CFI EndBlock cfiCond4
          CFI EndBlock cfiPicker5

        RSEG BANKED_CODE:HUGECODE:NOROOT(0)
?Subroutine1:
          CFI Block cfiCond6 Using cfiCommon0
          CFI Function GenericApp_ProcessEvent
          CFI Conditional ??CrossCallReturnLabel_3
          CFI R6 load(1, XDATA, add(CFA_XSP16, literal(-16)))
          CFI VB load(1, XDATA, add(CFA_XSP16, literal(-15)))
          CFI V0 load(1, XDATA, add(CFA_XSP16, literal(-14)))
          CFI V1 load(1, XDATA, add(CFA_XSP16, literal(-13)))
          CFI V2 load(1, XDATA, add(CFA_XSP16, literal(-12)))
          CFI V3 load(1, XDATA, add(CFA_XSP16, literal(-11)))
          CFI V4 load(1, XDATA, add(CFA_XSP16, literal(-10)))
          CFI V5 load(1, XDATA, add(CFA_XSP16, literal(-9)))
          CFI V6 load(1, XDATA, add(CFA_XSP16, literal(-8)))
          CFI V7 load(1, XDATA, add(CFA_XSP16, literal(-7)))
          CFI R7 load(1, XDATA, add(CFA_XSP16, literal(-6)))
          CFI ?RET_LOW load(1, XDATA, add(CFA_XSP16, literal(-5)))
          CFI ?RET_HIGH load(1, XDATA, add(CFA_XSP16, literal(-4)))
          CFI ?BRET_EXT load(1, XDATA, add(CFA_XSP16, literal(-3)))
          CFI DPL0 load(1, XDATA, add(CFA_XSP16, literal(-2)))
          CFI DPH0 load(1, XDATA, add(CFA_XSP16, literal(-1)))
          CFI CFA_SP SP+-2
          CFI CFA_XSP16 add(XSP16, 282)
          CFI Block cfiCond7 Using cfiCommon0
          CFI (cfiCond7) Function GenericApp_ProcessEvent
          CFI (cfiCond7) Conditional ??CrossCallReturnLabel_2
          CFI (cfiCond7) R6 load(1, XDATA, add(CFA_XSP16, literal(-16)))
          CFI (cfiCond7) VB load(1, XDATA, add(CFA_XSP16, literal(-15)))
          CFI (cfiCond7) V0 load(1, XDATA, add(CFA_XSP16, literal(-14)))
          CFI (cfiCond7) V1 load(1, XDATA, add(CFA_XSP16, literal(-13)))
          CFI (cfiCond7) V2 load(1, XDATA, add(CFA_XSP16, literal(-12)))
          CFI (cfiCond7) V3 load(1, XDATA, add(CFA_XSP16, literal(-11)))
          CFI (cfiCond7) V4 load(1, XDATA, add(CFA_XSP16, literal(-10)))
          CFI (cfiCond7) V5 load(1, XDATA, add(CFA_XSP16, literal(-9)))
          CFI (cfiCond7) V6 load(1, XDATA, add(CFA_XSP16, literal(-8)))
          CFI (cfiCond7) V7 load(1, XDATA, add(CFA_XSP16, literal(-7)))
          CFI (cfiCond7) R7 load(1, XDATA, add(CFA_XSP16, literal(-6)))
          CFI (cfiCond7) ?RET_LOW load(1, XDATA, add(CFA_XSP16, literal(-5)))
          CFI (cfiCond7) ?RET_HIGH load(1, XDATA, add(CFA_XSP16, literal(-4)))
          CFI (cfiCond7) ?BRET_EXT load(1, XDATA, add(CFA_XSP16, literal(-3)))
          CFI (cfiCond7) DPL0 load(1, XDATA, add(CFA_XSP16, literal(-2)))
          CFI (cfiCond7) DPH0 load(1, XDATA, add(CFA_XSP16, literal(-1)))
          CFI (cfiCond7) CFA_SP SP+-2
          CFI (cfiCond7) CFA_XSP16 add(XSP16, 282)
          CFI Block cfiPicker8 Using cfiCommon1
          CFI (cfiPicker8) NoFunction
          CFI (cfiPicker8) Picker
        MOVX    @DPTR,A
        MOV     DPL,R2
        MOV     DPH,R3
        INC     DPTR
        INC     DPTR
        INC     DPTR
        INC     DPTR
        RET
          CFI EndBlock cfiCond6
          CFI EndBlock cfiCond7
          CFI EndBlock cfiPicker8

        RSEG BANKED_CODE:HUGECODE:NOROOT(0)
?Subroutine0:
          CFI Block cfiCond9 Using cfiCommon0
          CFI Function GenericApp_ProcessEvent
          CFI Conditional ??CrossCallReturnLabel_0
          CFI R6 load(1, XDATA, add(CFA_XSP16, literal(-16)))
          CFI VB load(1, XDATA, add(CFA_XSP16, literal(-15)))
          CFI V0 load(1, XDATA, add(CFA_XSP16, literal(-14)))
          CFI V1 load(1, XDATA, add(CFA_XSP16, literal(-13)))
          CFI V2 load(1, XDATA, add(CFA_XSP16, literal(-12)))
          CFI V3 load(1, XDATA, add(CFA_XSP16, literal(-11)))
          CFI V4 load(1, XDATA, add(CFA_XSP16, literal(-10)))
          CFI V5 load(1, XDATA, add(CFA_XSP16, literal(-9)))
          CFI V6 load(1, XDATA, add(CFA_XSP16, literal(-8)))
          CFI V7 load(1, XDATA, add(CFA_XSP16, literal(-7)))
          CFI R7 load(1, XDATA, add(CFA_XSP16, literal(-6)))
          CFI ?RET_LOW load(1, XDATA, add(CFA_XSP16, literal(-5)))
          CFI ?RET_HIGH load(1, XDATA, add(CFA_XSP16, literal(-4)))
          CFI ?BRET_EXT load(1, XDATA, add(CFA_XSP16, literal(-3)))
          CFI DPL0 load(1, XDATA, add(CFA_XSP16, literal(-2)))
          CFI DPH0 load(1, XDATA, add(CFA_XSP16, literal(-1)))
          CFI CFA_SP SP+-2
          CFI CFA_XSP16 add(XSP16, 282)
          CFI Block cfiCond10 Using cfiCommon0
          CFI (cfiCond10) Function GenericApp_ProcessEvent
          CFI (cfiCond10) Conditional ??CrossCallReturnLabel_1
          CFI (cfiCond10) R6 load(1, XDATA, add(CFA_XSP16, literal(-16)))
          CFI (cfiCond10) VB load(1, XDATA, add(CFA_XSP16, literal(-15)))
          CFI (cfiCond10) V0 load(1, XDATA, add(CFA_XSP16, literal(-14)))
          CFI (cfiCond10) V1 load(1, XDATA, add(CFA_XSP16, literal(-13)))
          CFI (cfiCond10) V2 load(1, XDATA, add(CFA_XSP16, literal(-12)))
          CFI (cfiCond10) V3 load(1, XDATA, add(CFA_XSP16, literal(-11)))
          CFI (cfiCond10) V4 load(1, XDATA, add(CFA_XSP16, literal(-10)))
          CFI (cfiCond10) V5 load(1, XDATA, add(CFA_XSP16, literal(-9)))
          CFI (cfiCond10) V6 load(1, XDATA, add(CFA_XSP16, literal(-8)))
          CFI (cfiCond10) V7 load(1, XDATA, add(CFA_XSP16, literal(-7)))
          CFI (cfiCond10) R7 load(1, XDATA, add(CFA_XSP16, literal(-6)))
          CFI (cfiCond10) ?RET_LOW load(1, XDATA, add(CFA_XSP16, literal(-5)))
          CFI (cfiCond10) ?RET_HIGH load(1, XDATA, add(CFA_XSP16, literal(-4)))
          CFI (cfiCond10) ?BRET_EXT load(1, XDATA, add(CFA_XSP16, literal(-3)))
          CFI (cfiCond10) DPL0 load(1, XDATA, add(CFA_XSP16, literal(-2)))
          CFI (cfiCond10) DPH0 load(1, XDATA, add(CFA_XSP16, literal(-1)))
          CFI (cfiCond10) CFA_SP SP+-2
          CFI (cfiCond10) CFA_XSP16 add(XSP16, 285)
          CFI Block cfiPicker11 Using cfiCommon1
          CFI (cfiPicker11) NoFunction
          CFI (cfiPicker11) Picker
        MOV     DPTR,#GenericApp_DstAddress
        MOVX    A,@DPTR
        MOV     R0,A
        INC     DPTR
        MOVX    A,@DPTR
        MOV     R1,A
        MOV     A,R0
        MOV     B,#0x19
        MUL     AB
        MOV     R0,A
        RET
          CFI EndBlock cfiCond9
          CFI EndBlock cfiCond10
          CFI EndBlock cfiPicker11

        RSEG XDATA_ID:CODE:NOROOT(0)
`?<Initializer for coin>`:
        DATA8
        DB 1

        RSEG XDATA_ID:CODE:NOROOT(0)
`?<Initializer for keyPressSW4>`:
        DATA8
        DB 1

        RSEG XDATA_ID:CODE:NOROOT(0)
`?<Initializer for txMsgDelay>`:
        DATA32
        DD 5000

        RSEG BANK_RELAYS:CODE:REORDER:NOROOT(0)
`??GenericApp_Init::?relay`:
        CODE
        LCALL   ?BDISPATCH
        DATA24
        DC24    GenericApp_Init

        RSEG BANK_RELAYS:CODE:REORDER:NOROOT(0)
`??GenericApp_ProcessEvent::?relay`:
        CODE
        LCALL   ?BDISPATCH
        DATA24
        DC24    GenericApp_ProcessEvent

        RSEG XDATA_ROM_C:CONST:REORDER:NOROOT(0)
        DATA8
`?<Constant "GenericApp">`:
        DB "GenericApp"

        RSEG XDATA_ROM_C:CONST:REORDER:NOROOT(0)
        DATA8
`?<Constant "End Device Match Desc">`:
        DB "End Device Match Desc"

        RSEG XDATA_ROM_C:CONST:REORDER:NOROOT(0)
        DATA32
__Constant_3e8:
        DD 1000

        END
//  672 
//  673 /*********************************************************************
//  674  * Event Generation Functions
//  675  */
//  676 
//  677 /*********************************************************************
//  678  * @fn      GenericApp_ProcessZDOMsgs()
//  679  *
//  680  * @brief   Process response messages
//  681  *
//  682  * @param   none
//  683  *
//  684  * @return  none
//  685  */
//  686 static void GenericApp_ProcessZDOMsgs( zdoIncomingMsg_t *inMsg )
//  687 {
//  688 
//  689   switch ( inMsg->clusterID )
//  690   {
//  691     case End_Device_Bind_rsp:
//  692       if ( ZDO_ParseBindRsp( inMsg ) == ZSuccess )
//  693       {
//  694       
//  695         // Light LED
//  696         HalLedSet( HAL_LED_4, HAL_LED_MODE_ON );
//  697       }
//  698 #if defined( BLINK_LEDS )
//  699       else
//  700       {
//  701         // Flash LED to show failure
//  702         HalLedSet ( HAL_LED_4, HAL_LED_MODE_FLASH );
//  703       }
//  704 #endif
//  705       break;
//  706 
//  707     case Match_Desc_rsp:
//  708       {
//  709         HalLcdWriteString("End Device Match Desc",0);
//  710         
//  711         ZDO_ActiveEndpointRsp_t *pRsp = ZDO_ParseEPListRsp( inMsg );
//  712         if ( pRsp )
//  713         {
//  714               if ( pRsp->status == ZSuccess && pRsp->cnt )
//  715               {
//  716                 
//  717             GenericApp_DstAddr.addrMode = (afAddrMode_t)Addr16Bit;
//  718             GenericApp_DstAddr.addr.shortAddr = pRsp->nwkAddr;
//  719             // Take the first endpoint, Can be changed to search through endpoints
//  720             GenericApp_DstAddr.endPoint = pRsp->epList[0];
//  721 
//  722             // Light LED
//  723             HalLedSet( HAL_LED_4, HAL_LED_MODE_ON );
//  724           }
//  725           osal_mem_free( pRsp );
//  726         }
//  727       }
//  728       break;
//  729   }
//  730 }
//  731 
//  732 /*********************************************************************
//  733  * @fn      GenericApp_HandleKeys
//  734  *
//  735  * @brief   Handles all key events for this device.
//  736  *
//  737  * @param   shift - true if in shift/alt.
//  738  * @param   keys - bit field for key events. Valid entries:
//  739  *                 HAL_KEY_SW_4
//  740  *                 HAL_KEY_SW_3
//  741  *                 HAL_KEY_SW_2
//  742  *                 HAL_KEY_SW_1
//  743  *
//  744  * @return  none
//  745  *//*
//  746 static void GenericApp_HandleKeys( uint8 shift, uint8 keys )
//  747 {
//  748   zAddrType_t dstAddr;
//  749 
//  750   // Shift is used to make each button/switch dual purpose.
//  751   if ( shift )
//  752   {
//  753     if ( keys & HAL_KEY_SW_1 )
//  754     {
//  755     }
//  756     if ( keys & HAL_KEY_SW_2 )
//  757     {
//  758     }
//  759     if ( keys & HAL_KEY_SW_3 )
//  760     {
//  761     }
//  762     if ( keys & HAL_KEY_SW_4 )
//  763     {
//  764     }
//  765   }
//  766   else
//  767   {
//  768     if ( keys & HAL_KEY_SW_1 )
//  769     {
//  770 #if defined( SWITCH1_BIND )
//  771       // We can use SW1 to simulate SW2 for devices that only have one switch,
//  772       keys |= HAL_KEY_SW_2;
//  773 #elif defined( SWITCH1_MATCH )
//  774       // or use SW1 to simulate SW4 for devices that only have one switch
//  775       keys |= HAL_KEY_SW_4;
//  776 #else
//  777       // Normally, SW1 changes the rate that messages are sent
//  778       if ( txMsgDelay > 100 )
//  779       {
//  780         // Cut the message TX delay in half
//  781         txMsgDelay /= 2;
//  782       }
//  783       else
//  784       {
//  785         // Reset to the default
//  786         txMsgDelay = GENERICAPP_SEND_MSG_TIMEOUT;
//  787       }
//  788 #endif
//  789     }
//  790 
//  791     if ( keys & HAL_KEY_SW_2 )
//  792     {
//  793       HalLedSet ( HAL_LED_4, HAL_LED_MODE_OFF );
//  794 
//  795       // Initiate an End Device Bind Request for the mandatory endpoint
//  796       dstAddr.addrMode = Addr16Bit;
//  797       dstAddr.addr.shortAddr = 0x0000; // Coordinator
//  798       ZDP_EndDeviceBindReq( &dstAddr, NLME_GetShortAddr(),
//  799                             GenericApp_epDesc.endPoint,
//  800                             GENERICAPP_PROFID,
//  801                             GENERICAPP_MAX_CLUSTERS, (cId_t *)GenericApp_ClusterList,
//  802                             GENERICAPP_MAX_CLUSTERS, (cId_t *)GenericApp_ClusterList,
//  803                             FALSE );
//  804     }
//  805 
//  806     if ( keys & HAL_KEY_SW_3 )
//  807     {
//  808     }
//  809 
//  810     if ( keys & HAL_KEY_SW_4 )
//  811     {
//  812       HalLedSet ( HAL_LED_4, HAL_LED_MODE_OFF );
//  813       // Initiate a Match Description Request (Service Discovery)
//  814       dstAddr.addrMode = AddrBroadcast;
//  815       dstAddr.addr.shortAddr = NWK_BROADCAST_SHORTADDR;
//  816       ZDP_MatchDescReq( &dstAddr, NWK_BROADCAST_SHORTADDR,
//  817                         GENERICAPP_PROFID,
//  818                         GENERICAPP_MAX_CLUSTERS, (cId_t *)GenericApp_ClusterList,
//  819                         GENERICAPP_MAX_CLUSTERS, (cId_t *)GenericApp_ClusterList,
//  820                         FALSE );
//  821     }
//  822   }
//  823 }
//  824 */
//  825 /*********************************************************************
//  826  * LOCAL FUNCTIONS
//  827  */
//  828 
//  829 /*********************************************************************
//  830  * @fn      GenericApp_MessageMSGCB
//  831  *
//  832  * @brief   Data message processor callback.  This function processes
//  833  *          any incoming data - probably from other devices.  So, based
//  834  *          on cluster ID, perform the intended action.
//  835  *
//  836  * @param   none
//  837  *
//  838  * @return  none
//  839  */
//  840 static void GenericApp_MessageMSGCB( afIncomingMSGPacket_t *pkt )
//  841 {
//  842   //uint8 i;
//  843   //////////////////////////////////////////////////////////////////////////////
//  844   Data_t Data;
//  845   uint16 addr;
//  846   //char * id;
//  847   //////////////////////////////////////////////////////////////////////////////
//  848   switch ( pkt->clusterId )
//  849   {
//  850     case GENERICAPP_CLUSTERID:
//  851       
//  852       {
//  853       rxMsgCount += 1;  // Count this message
//  854       HalLedSet ( HAL_LED_4, HAL_LED_MODE_BLINK );  // Blink an LED
//  855 
//  856      // HalLcdWriteString("--------------------------------",0);
//  857      // HalLcdWriteString("Received data:",0);
//  858 /*      
//  859       for(i=0;i<pkt->cmd.DataLength;i++)
//  860       {
//  861         uartSend(*(pkt->cmd.Data + i));
//  862         
//  863       }
//  864 */     
//  865  ////////////////////////////////////////////////////////////////////////////////////////////////////////////////////
//  866       //Data.devID = *(pkt->cmd.Data);
//  867       Data.devID =getIDFromPkt(&pkt->cmd);
//  868       
//  869       //id = (char*)&Data.devID;
//  870       //pkt->cmd.Data++;
//  871       //pkt->cmd.Data++;
//  872       //Data.data = *(pkt->cmd.Data);
//  873       Data.data =getDataFromPkt(&pkt->cmd); 
//  874       //id = (char*)&Data.data;
//  875       addr = pkt->macSrcAddr;
//  876       
//  877       updateLookUpTable(Data, addr);
//  878       //HalLcdWriteString(id,0); 
//  879       //HalLcdWriteString("Sina----------------------",0); 
//  880       
//  881  ///////////////////////////////////////////////////////////////////////////////
//  882  //zakomentarisao
//  883       /*
//  884       switch(*(pkt->cmd.Data))
//  885       {
//  886         
//  887         case ('T'):
//  888         {
//  889               HalLcdWriteString("Temperatura: ",0);
//  890               for(i=1;i<pkt->cmd.DataLength;i++)
//  891               {
//  892                 if(3 == i)
//  893                 {
//  894                   uartSend('.');
//  895                 }
//  896                 
//  897                   uartSend(*(pkt->cmd.Data + i));
//  898               }
//  899               
//  900               HalLcdWriteString(" *C",0);
//  901               break;
//  902         }
//  903       
//  904       
//  905        case ('P'):
//  906        {
//  907             
//  908          HalLcdWriteString("Pritisak: ",0);
//  909             for(i=1;i<pkt->cmd.DataLength;i++)
//  910             {
//  911               uartSend(*(pkt->cmd.Data + i));
//  912             } 
//  913            HalLcdWriteString(" mbar",0);
//  914              break;
//  915         }
//  916           
//  917        case ('H'):
//  918         {
//  919          HalLcdWriteString("Vlaznost",0);
//  920          for(i=1;i<pkt->cmd.DataLength;i++)
//  921             {
//  922             uartSend(*(pkt->cmd.Data + i));
//  923             }
//  924            HalLcdWriteString(" %",0);
//  925          break;
//  926          }
//  927         
//  928       case ('M'):
//  929         {
//  930         if(*(pkt->cmd.Data+1)=='1')
//  931            HalLcdWriteString("Pokret je detektovan",0);
//  932            
//  933          else
//  934            HalLcdWriteString(" GreskaM!!! ",0);
//  935         break;
//  936         }
//  937 
//  938         case ('D'):
//  939           {
//  940            if(*(pkt->cmd.Data+1)=='1')
//  941               HalLcdWriteString("Vrata su otvorena",0);
//  942            
//  943             else if(*(pkt->cmd.Data+1)=='0')
//  944                HalLcdWriteString("Vrata su zatvorena",0);
//  945         
//  946          else
//  947            HalLcdWriteString(" GreskaD!!! ",0);
//  948          break;
//  949           }
//  950       
//  951           case ('O'):
//  952           {
//  953           if(*(pkt->cmd.Data+1)=='1')
//  954            HalLcdWriteString("Mrak",0);
//  955            
//  956           else if(*(pkt->cmd.Data+1)=='2')
//  957            HalLcdWriteString("Slabo osvijetljeno",0);
//  958         
//  959           else if(*(pkt->cmd.Data+1)=='3')
//  960            HalLcdWriteString("Osvijetljeno",0);
//  961         
//  962           else if(*(pkt->cmd.Data+1)=='4')
//  963            HalLcdWriteString("Jako osvijetljeno",0);
//  964         
//  965           else
//  966             HalLcdWriteString(" GreskaO!!! ",0);
//  967           break;
//  968           }
//  969       } //second switch end
//  970       */
//  971 ///////////////////////////////////////////////////////////////////////////////      
//  972     //  HalLcdWriteString("",0);
//  973     //  HalLcdWriteString("--------------------------------",0);
//  974       
//  975      
//  976       }
//  977       break; //break first switch
//  978       
//  979   default:
//  980     
//  981    //HalLcdWriteString("Podatak nije primljen.",0);
//  982         
//  983     break;
//  984 
//  985   }
//  986 
//  987 
//  988 }
//  989 
//  990 /*********************************************************************
//  991  * @fn      GenericApp_SendTheMessage
//  992  *
//  993  * @brief   Send "the" message.
//  994  *
//  995  * @param   none
//  996 
//  997  *
//  998  * @return  none
//  999  */
// 1000 static void GenericApp_SendTheMessage( void )
// 1001 {
// 1002   uint8 i;
// 1003   //char * id;
// 1004   //uint32 data;
// 1005   
// 1006   for(i = 0; i < 20; i++)
// 1007   {
// 1008     //HalLcdWriteString("Sinisa-------------petlja-----",0);
// 1009     if(0 != lutData[i].devID)
// 1010     {
// 1011       sendDataToPC(&lutData[i]);
// 1012       
// 1013       //id = (char*)&lutData[i].devID;
// 1014      // id[2] = '\0';
// 1015        // HalLcdWriteString("-----------------------------Borislav  Send----------------------",0);
// 1016        // HalLcdWriteString(id,0);
// 1017        // HalLcdWriteString("-----------------------------Borislav  Send----------------------",0);
// 1018       //HalLcdWriteString("Sinisa-------------petlja-----",0);
// 1019     }
// 1020   } 
// 1021    //HalLcdWriteString("Sinisa----------------------",0); 
// 1022 /*
// 1023   
// 1024   uint8 i;
// 1025   char num = '0';
// 1026 
// 1027   char theMessageData[MAX_NUMBER_OF_ENDDEVICES][25] = {"You are EndDevice1111","You are EndDevice2222"};
// 1028   //char *msg1;
// 1029   //char *msg2;
// 1030   //char *msg[MAX_NUMBER_OF_ENDDEVICES];
// 1031   //HalLcdRead(msg[0],2);
// 1032   //HalLcdRead(msg[1],2);
// 1033   
// 1034   //HalLcdWriteString("Sile in send",0);
// 1035   */
// 1036   /*
// 1037   char theMessage[MAX_NUMBER_OF_ENDDEVICES][25] = {"0000", "FFFF"};
// 1038   if('1' == (char)*buff)
// 1039   {
// 1040     theMessage[0][0] = (char)buff[0];
// 1041     theMessage[0][1] = (char)buff[1];
// 1042     theMessage[0][2] = '\0';
// 1043     theMessage[1][0] = '0';
// 1044     theMessage[1][1] = '0';
// 1045     theMessage[1][2] = '\0';
// 1046    // HalLcdWriteString("Buff 1",0);
// 1047   }
// 1048   else
// 1049   {
// 1050     theMessage[1][0] = (char)buff[0];
// 1051     theMessage[1][1] = (char)buff[1];
// 1052     //theMessage[1][0] = (char)*buff;
// 1053     //theMessage[1][1] = (char)*(buff+1);
// 1054     theMessage[1][2] = '\0';
// 1055     theMessage[0][0] = '0';
// 1056     theMessage[0][1] = '0';
// 1057     theMessage[0][2] = '\0';
// 1058     //HalLcdWriteString("Buff 2",0);
// 1059   }
// 1060   
// 1061   for(i = 0; i<brojac; i++)
// 1062   {
// 1063    */ 
// 1064    /*  HalLcdWriteString("Ulazak u petlju",0);
// 1065      num+=i;
// 1066      uartSend(num);
// 1067      HalLcdWriteString("",0);
// 1068      */
// 1069   /*  if(GenericApp_DstAddress[i].addr.shortAddr != 0 )
// 1070                          
// 1071     {
// 1072       if ( AF_DataRequest( &GenericApp_DstAddress[i], &GenericApp_epDesc,
// 1073                          GENERICAPP_CLUSTERID,
// 1074                          //(byte)osal_strlen( theMessageData[i] ) + 1,
// 1075                          //(byte *)&theMessageData[i],
// 1076                          (byte)osal_strlen( theMessage[i] ) + 1,
// 1077                          (byte *)&theMessage[i],
// 1078                          //(byte *)theMessageData[i],
// 1079                          //(byte)osal_strlen(msg[i]) + 1,
// 1080                          //(byte *)msg[i],
// 1081                          &GenericApp_TransID,
// 1082                          AF_DISCV_ROUTE, AF_DEFAULT_RADIUS ) == afStatus_SUCCESS )
// 1083       {
// 1084       // Successfully requested to be sent.
// 1085         HalLcdWriteString("Podatak je poslan.",0);
// 1086   */
// 1087         /*HalLcdWriteString("###############################",0);
// 1088      
// 1089       
// 1090           for(i = 0;i <3;i++)
// 1091           {
// 1092             uartSend(*(buff + i));
// 1093           }
// 1094       
// 1095           HalLcdWriteString("",0);
// 1096           HalLcdWriteString("--------------------------------",0);
// 1097         */
// 1098   /*    }
// 1099       else
// 1100       {
// 1101       // Error occurred in request to send.
// 1102         HalLcdWriteString("Podatak nije poslan.",0);
// 1103       }
// 1104     
// 1105     }
// 1106   }
// 1107 
// 1108   buff[0] = '\0';
// 1109   */
// 1110 }
// 1111 
// 1112 #if defined( IAR_ARMCM3_LM )
// 1113 /*********************************************************************
// 1114  * @fn      GenericApp_ProcessRtosMessage
// 1115  *
// 1116  * @brief   Receive message from RTOS queue, send response back.
// 1117  *
// 1118  * @param   none
// 1119  *
// 1120  * @return  none
// 1121  */
// 1122 static void GenericApp_ProcessRtosMessage( void )
// 1123 {
// 1124   osalQueue_t inMsg;
// 1125 
// 1126   if ( osal_queue_receive( OsalQueue, &inMsg, 0 ) == pdPASS )
// 1127   {
// 1128     uint8 cmndId = inMsg.cmnd;
// 1129     uint32 counter = osal_build_uint32( inMsg.cbuf, 4 );
// 1130 
// 1131     switch ( cmndId )
// 1132     {
// 1133       case CMD_INCR:
// 1134         counter += 1;  /* Increment the incoming counter */
// 1135                        /* Intentionally fall through next case */
// 1136 
// 1137       case CMD_ECHO:
// 1138       {
// 1139         userQueue_t outMsg;
// 1140 
// 1141         outMsg.resp = RSP_CODE | cmndId;  /* Response ID */
// 1142         osal_buffer_uint32( outMsg.rbuf, counter );    /* Increment counter */
// 1143         osal_queue_send( UserQueue1, &outMsg, 0 );  /* Send back to UserTask */
// 1144         break;
// 1145       }
// 1146 
// 1147       default:
// 1148         break;  /* Ignore unknown command */
// 1149     }
// 1150   }
// 1151 }
// 1152 #endif
// 1153 
// 1154 /**********************************************************************/
// 1155 
// 1156 /*********************************************************************/
// 
// 1 081 bytes in segment BANKED_CODE
//    12 bytes in segment BANK_RELAYS
//     6 bytes in segment XDATA_I
//     6 bytes in segment XDATA_ID
//    51 bytes in segment XDATA_ROM_C
//   584 bytes in segment XDATA_Z
// 
//    18 bytes of CODE     memory
//    47 bytes of CONST    memory (+ 4 bytes shared)
// 1 081 bytes of HUGECODE memory
//   590 bytes of XDATA    memory
//
//Errors: none
//Warnings: none
