///////////////////////////////////////////////////////////////////////////////
//
// IAR C/C++ Compiler V9.30.3.3983 for 8051               05/May/2017  15:57:09
// Copyright 2004-2016 IAR Systems AB.
// Evaluation license - IAR Embedded Workbench for 8051, Evaluation version 9.30
//
//    Core               =  plain
//    Code model         =  banked
//    Data model         =  large
//    Calling convention =  xdata reentrant
//    Constant location  =  data_rom
//    Dptr setup         =  1,16
//                          
//    Source file        =  
//        C:\Users\ljuic\Desktop\New
//        folder\ZigBeeCoordinator\Projects\zstack\Samples\GenericApp\Source\GenericApp.c
//    Command line       =  
//        -f "C:\Users\ljuic\Desktop\New
//        folder\ZigBeeCoordinator\Projects\zstack\Samples\GenericApp\CC2530DB\..\..\..\Tools\CC2530DB\f8wCoord.cfg"
//        (-DCPU32MHZ -DROOT=__near_func -DMAC_CFG_APP_PENDING_QUEUE=TRUE
//        -DMAC_CFG_TX_DATA_MAX=5 -DMAC_CFG_TX_MAX=8 -DMAC_CFG_RX_MAX=5
//        -DZDO_COORDINATOR -DRTR_NWK) -f "C:\Users\ljuic\Desktop\New
//        folder\ZigBeeCoordinator\Projects\zstack\Samples\GenericApp\CC2530DB\..\..\..\Tools\CC2530DB\f8wConfig.cfg"
//        (-DZIGBEEPRO -DSECURE=1 -DZG_SECURE_DYNAMIC=0 -DREFLECTOR
//        -DDEFAULT_CHANLIST=0x00000800 -DZDAPP_CONFIG_PAN_ID=0x0422
//        -DNWK_START_DELAY=100 -DEXTENDED_JOINING_RANDOM_MASK=0x007F
//        -DBEACON_REQUEST_DELAY=100 -DBEACON_REQ_DELAY_MASK=0x00FF
//        -DLINK_STATUS_JITTER_MASK=0x007F -DROUTE_EXPIRY_TIME=30
//        -DAPSC_ACK_WAIT_DURATION_POLLED=3000 -DNWK_INDIRECT_MSG_TIMEOUT=7
//        -DMAX_RREQ_ENTRIES=8 -DAPSC_MAX_FRAME_RETRIES=3
//        -DNWK_MAX_DATA_RETRIES=2 -DMAX_POLL_FAILURE_RETRIES=2 -DMAX_BCAST=9
//        -DAPS_MAX_GROUPS=16 -DMAX_RTG_ENTRIES=40 -DNWK_MAX_BINDING_ENTRIES=4
//        -DMAX_BINDING_CLUSTER_IDS=4 "-DDEFAULT_KEY={0x01, 0x03, 0x05, 0x07,
//        0x09, 0x0B, 0x0D, 0x0F, 0x00, 0x02, 0x04, 0x06, 0x08, 0x0A, 0x0C,
//        0x0D}" -DMAC_MAX_FRAME_SIZE=116 -DZDNWKMGR_MIN_TRANSMISSIONS=20
//        "-DCONST=const __code" -DGENERIC=__generic -DRFD_RCVC_ALWAYS_ON=FALSE
//        -DPOLL_RATE=1000 -DQUEUED_POLL_RATE=100 -DRESPONSE_POLL_RATE=100)
//        -DREJOIN_POLL_RATE=440 "C:\Users\ljuic\Desktop\New
//        folder\ZigBeeCoordinator\Projects\zstack\Samples\GenericApp\Source\GenericApp.c"
//        -D ZTOOL_P1 -D MT_TASK -D MT_SYS_FUNC -D MT_ZDO_FUNC -D
//        LCD_SUPPORTED=DEBUG -lC "C:\Users\ljuic\Desktop\New
//        folder\ZigBeeCoordinator\Projects\zstack\Samples\GenericApp\CC2530DB\CoordinatorEB\List"
//        -lA "C:\Users\ljuic\Desktop\New
//        folder\ZigBeeCoordinator\Projects\zstack\Samples\GenericApp\CC2530DB\CoordinatorEB\List"
//        --diag_suppress Pe001,Pa010 -o "C:\Users\ljuic\Desktop\New
//        folder\ZigBeeCoordinator\Projects\zstack\Samples\GenericApp\CC2530DB\CoordinatorEB\Obj"
//        -e --no_code_motion --debug --core=plain --dptr=16,1
//        --data_model=large --code_model=banked
//        --calling_convention=xdata_reentrant --place_constants=data_rom
//        --nr_virtual_regs 16 -I "C:\Users\ljuic\Desktop\New
//        folder\ZigBeeCoordinator\Projects\zstack\Samples\GenericApp\CC2530DB\"
//        -I "C:\Users\ljuic\Desktop\New
//        folder\ZigBeeCoordinator\Projects\zstack\Samples\GenericApp\CC2530DB\..\Source\"
//        -I "C:\Users\ljuic\Desktop\New
//        folder\ZigBeeCoordinator\Projects\zstack\Samples\GenericApp\CC2530DB\..\..\..\ZMain\TI2530DB\"
//        -I "C:\Users\ljuic\Desktop\New
//        folder\ZigBeeCoordinator\Projects\zstack\Samples\GenericApp\CC2530DB\..\..\..\..\..\Components\hal\include\"
//        -I "C:\Users\ljuic\Desktop\New
//        folder\ZigBeeCoordinator\Projects\zstack\Samples\GenericApp\CC2530DB\..\..\..\..\..\Components\hal\target\CC2530EB\"
//        -I "C:\Users\ljuic\Desktop\New
//        folder\ZigBeeCoordinator\Projects\zstack\Samples\GenericApp\CC2530DB\..\..\..\..\..\Components\mac\include\"
//        -I "C:\Users\ljuic\Desktop\New
//        folder\ZigBeeCoordinator\Projects\zstack\Samples\GenericApp\CC2530DB\..\..\..\..\..\Components\mac\high_level\"
//        -I "C:\Users\ljuic\Desktop\New
//        folder\ZigBeeCoordinator\Projects\zstack\Samples\GenericApp\CC2530DB\..\..\..\..\..\Components\mac\low_level\srf04\"
//        -I "C:\Users\ljuic\Desktop\New
//        folder\ZigBeeCoordinator\Projects\zstack\Samples\GenericApp\CC2530DB\..\..\..\..\..\Components\mac\low_level\srf04\single_chip\"
//        -I "C:\Users\ljuic\Desktop\New
//        folder\ZigBeeCoordinator\Projects\zstack\Samples\GenericApp\CC2530DB\..\..\..\..\..\Components\mt\"
//        -I "C:\Users\ljuic\Desktop\New
//        folder\ZigBeeCoordinator\Projects\zstack\Samples\GenericApp\CC2530DB\..\..\..\..\..\Components\osal\include\"
//        -I "C:\Users\ljuic\Desktop\New
//        folder\ZigBeeCoordinator\Projects\zstack\Samples\GenericApp\CC2530DB\..\..\..\..\..\Components\services\saddr\"
//        -I "C:\Users\ljuic\Desktop\New
//        folder\ZigBeeCoordinator\Projects\zstack\Samples\GenericApp\CC2530DB\..\..\..\..\..\Components\services\sdata\"
//        -I "C:\Users\ljuic\Desktop\New
//        folder\ZigBeeCoordinator\Projects\zstack\Samples\GenericApp\CC2530DB\..\..\..\..\..\Components\stack\af\"
//        -I "C:\Users\ljuic\Desktop\New
//        folder\ZigBeeCoordinator\Projects\zstack\Samples\GenericApp\CC2530DB\..\..\..\..\..\Components\stack\nwk\"
//        -I "C:\Users\ljuic\Desktop\New
//        folder\ZigBeeCoordinator\Projects\zstack\Samples\GenericApp\CC2530DB\..\..\..\..\..\Components\stack\sapi\"
//        -I "C:\Users\ljuic\Desktop\New
//        folder\ZigBeeCoordinator\Projects\zstack\Samples\GenericApp\CC2530DB\..\..\..\..\..\Components\stack\sec\"
//        -I "C:\Users\ljuic\Desktop\New
//        folder\ZigBeeCoordinator\Projects\zstack\Samples\GenericApp\CC2530DB\..\..\..\..\..\Components\stack\sys\"
//        -I "C:\Users\ljuic\Desktop\New
//        folder\ZigBeeCoordinator\Projects\zstack\Samples\GenericApp\CC2530DB\..\..\..\..\..\Components\stack\zdo\"
//        -I "C:\Users\ljuic\Desktop\New
//        folder\ZigBeeCoordinator\Projects\zstack\Samples\GenericApp\CC2530DB\..\..\..\..\..\Components\zmac\"
//        -I "C:\Users\ljuic\Desktop\New
//        folder\ZigBeeCoordinator\Projects\zstack\Samples\GenericApp\CC2530DB\..\..\..\..\..\Components\zmac\f8w\"
//        -I "C:\Users\ljuic\Desktop\New
//        folder\ZigBeeCoordinator\Projects\zstack\Samples\GenericApp\CC2530DB\..\..\..\..\..\Components\dll\"
//        -Ohz --require_prototypes
//    List file          =  
//        C:\Users\ljuic\Desktop\New
//        folder\ZigBeeCoordinator\Projects\zstack\Samples\GenericApp\CC2530DB\CoordinatorEB\List\GenericApp.s51
//
///////////////////////////////////////////////////////////////////////////////

        NAME GenericApp

        RTMODEL "__SystemLibrary", "CLib"
        RTMODEL "__calling_convention", "xdata_reentrant"
        RTMODEL "__code_model", "banked"
        RTMODEL "__core", "plain"
        RTMODEL "__data_model", "large"
        RTMODEL "__dptr_size", "16"
        RTMODEL "__extended_stack", "disabled"
        RTMODEL "__location_for_constants", "data"
        RTMODEL "__number_of_dptrs", "1"
        RTMODEL "__rt_version", "1"

        RSEG DOVERLAY:DATA:NOROOT(0)
        RSEG IOVERLAY:IDATA:NOROOT(0)
        RSEG ISTACK:IDATA:NOROOT(0)
        RSEG PSTACK:XDATA:NOROOT(0)
        RSEG XSTACK:XDATA:NOROOT(0)

        EXTERN ?V0
        EXTERN ?V1
        EXTERN ?V2
        EXTERN ?V3
        EXTERN ?V4
        EXTERN ?V5
        EXTERN ?V6
        EXTERN ?V7
        EXTERN ?ALLOC_XSTACK8
        EXTERN ?BANKED_ENTER_XDATA
        EXTERN ?BANKED_LEAVE_XDATA
        EXTERN ?BDISPATCH
        EXTERN ?DEALLOC_XSTACK8
        EXTERN ?PUSH_XSTACK8_X
        EXTERN ?PUSH_XSTACK8_X_FOUR
        EXTERN ?PUSH_XSTACK_I_ONE
        EXTERN ?PUSH_XSTACK_I_TWO
        EXTERN ?US_SWITCH_SPARSE
        EXTERN ?XSP
        EXTERN ?XSTACK_DISP0_8
        EXTERN ?XSTACK_DISP100_8
        EXTERN ?XSTACK_DISP101_8
        EXTERN ?XSTACK_DISP102_8
        EXTERN ?XSTORE_R0123
        EXTERN __INIT_XDATA_I
        EXTERN __INIT_XDATA_Z

        PUBLIC `??GenericApp_Init::?relay`
        FUNCTION `??GenericApp_Init::?relay`,0203H
        PUBLIC `??GenericApp_ProcessEvent::?relay`
        FUNCTION `??GenericApp_ProcessEvent::?relay`,0203H
        PUBLIC GenericApp_ClusterList
        PUBLIC GenericApp_DstAddr
        PUBLIC GenericApp_DstAddress
        PUBLIC GenericApp_Init
        FUNCTION GenericApp_Init,021203H
        ARGFRAME XSTACK, 0, STACK
        LOCFRAME XSTACK, 9, STACK
        PUBLIC GenericApp_NwkState
        PUBLIC GenericApp_ProcessEvent
        FUNCTION GenericApp_ProcessEvent,0a1203H
        ARGFRAME XSTACK, 0, STACK
        LOCFRAME ISTACK, 1, STACK
        LOCFRAME XSTACK, 80, STACK
        PUBLIC GenericApp_SimpleDesc
        PUBLIC GenericApp_TaskID
        PUBLIC GenericApp_TransID
        PUBLIC GenericApp_epDesc
        PUBLIC SAddr
        PUBWEAK __Constant_3e8
        PUBLIC brojac
        PUBLIC buff
        PUBLIC coin
        PUBLIC counter
        PUBLIC dataBuffer
        PUBLIC dataRdy
        PUBLIC index
        PUBLIC keyPressSW4
        PUBLIC lutData
        PUBLIC prevData
        PUBLIC rxBuffer
        PUBLIC shortAddressOfEndDevice
        PUBLIC uartConfig
        
          CFI Names cfiNames0
          CFI StackFrame CFA_SP SP IDATA
          CFI StackFrame CFA_PSP16 PSP16 XDATA
          CFI StackFrame CFA_XSP16 XSP16 XDATA
          CFI StaticOverlayFrame CFA_IOVERLAY IOVERLAY
          CFI StaticOverlayFrame CFA_DOVERLAY DOVERLAY
          CFI Resource `PSW.CY`:1, `B.BR0`:1, `B.BR1`:1, `B.BR2`:1, `B.BR3`:1
          CFI Resource `B.BR4`:1, `B.BR5`:1, `B.BR6`:1, `B.BR7`:1, `VB.BR8`:1
          CFI Resource `VB.BR9`:1, `VB.BR10`:1, `VB.BR11`:1, `VB.BR12`:1
          CFI Resource `VB.BR13`:1, `VB.BR14`:1, `VB.BR15`:1, VB:8, B:8, A:8
          CFI Resource PSW:8, DPL0:8, DPH0:8, R0:8, R1:8, R2:8, R3:8, R4:8, R5:8
          CFI Resource R6:8, R7:8, V0:8, V1:8, V2:8, V3:8, V4:8, V5:8, V6:8, V7:8
          CFI Resource V8:8, V9:8, V10:8, V11:8, V12:8, V13:8, V14:8, V15:8, SP:8
          CFI Resource PSPH:8, PSPL:8, PSP16:16, XSPH:8, XSPL:8, XSP16:16
          CFI VirtualResource ?RET:24
          CFI Resource ?BRET_EXT:8
          CFI VirtualResource ?RET_HIGH:8, ?RET_LOW:8
          CFI ResourceParts PSP16 PSPH, PSPL
          CFI ResourceParts XSP16 XSPH, XSPL
          CFI ResourceParts ?RET ?BRET_EXT, ?RET_HIGH, ?RET_LOW
          CFI EndNames cfiNames0
        
          CFI Common cfiCommon0 Using cfiNames0
          CFI CodeAlign 1
          CFI DataAlign -1
          CFI ReturnAddress ?RET CODE
          CFI CFA_DOVERLAY Used
          CFI CFA_IOVERLAY Used
          CFI CFA_SP SP+-3
          CFI CFA_PSP16 PSP16+0
          CFI CFA_XSP16 XSP16+0
          CFI `PSW.CY` SameValue
          CFI `B.BR0` SameValue
          CFI `B.BR1` SameValue
          CFI `B.BR2` SameValue
          CFI `B.BR3` SameValue
          CFI `B.BR4` SameValue
          CFI `B.BR5` SameValue
          CFI `B.BR6` SameValue
          CFI `B.BR7` SameValue
          CFI `VB.BR8` SameValue
          CFI `VB.BR9` SameValue
          CFI `VB.BR10` SameValue
          CFI `VB.BR11` SameValue
          CFI `VB.BR12` SameValue
          CFI `VB.BR13` SameValue
          CFI `VB.BR14` SameValue
          CFI `VB.BR15` SameValue
          CFI VB SameValue
          CFI B Undefined
          CFI A Undefined
          CFI PSW SameValue
          CFI DPL0 SameValue
          CFI DPH0 SameValue
          CFI R0 Undefined
          CFI R1 Undefined
          CFI R2 Undefined
          CFI R3 Undefined
          CFI R4 Undefined
          CFI R5 Undefined
          CFI R6 SameValue
          CFI R7 SameValue
          CFI V0 SameValue
          CFI V1 SameValue
          CFI V2 SameValue
          CFI V3 SameValue
          CFI V4 SameValue
          CFI V5 SameValue
          CFI V6 SameValue
          CFI V7 SameValue
          CFI V8 SameValue
          CFI V9 SameValue
          CFI V10 SameValue
          CFI V11 SameValue
          CFI V12 SameValue
          CFI V13 SameValue
          CFI V14 SameValue
          CFI V15 SameValue
          CFI PSPH Undefined
          CFI PSPL Undefined
          CFI XSPH Undefined
          CFI XSPL Undefined
          CFI ?RET Concat
          CFI ?BRET_EXT Frame(CFA_SP, 3)
          CFI ?RET_HIGH Frame(CFA_SP, 2)
          CFI ?RET_LOW Frame(CFA_SP, 1)
          CFI EndCommon cfiCommon0
        
        
          CFI Common cfiCommon1 Using cfiNames0
          CFI CodeAlign 1
          CFI DataAlign -1
          CFI ReturnAddress ?RET CODE
          CFI CFA_DOVERLAY Used
          CFI CFA_IOVERLAY Used
          CFI CFA_SP SP+-2
          CFI CFA_PSP16 PSP16+0
          CFI CFA_XSP16 XSP16+0
          CFI `PSW.CY` SameValue
          CFI `B.BR0` SameValue
          CFI `B.BR1` SameValue
          CFI `B.BR2` SameValue
          CFI `B.BR3` SameValue
          CFI `B.BR4` SameValue
          CFI `B.BR5` SameValue
          CFI `B.BR6` SameValue
          CFI `B.BR7` SameValue
          CFI `VB.BR8` SameValue
          CFI `VB.BR9` SameValue
          CFI `VB.BR10` SameValue
          CFI `VB.BR11` SameValue
          CFI `VB.BR12` SameValue
          CFI `VB.BR13` SameValue
          CFI `VB.BR14` SameValue
          CFI `VB.BR15` SameValue
          CFI VB SameValue
          CFI B SameValue
          CFI A SameValue
          CFI PSW SameValue
          CFI DPL0 SameValue
          CFI DPH0 SameValue
          CFI R0 SameValue
          CFI R1 SameValue
          CFI R2 SameValue
          CFI R3 SameValue
          CFI R4 SameValue
          CFI R5 SameValue
          CFI R6 SameValue
          CFI R7 SameValue
          CFI V0 SameValue
          CFI V1 SameValue
          CFI V2 SameValue
          CFI V3 SameValue
          CFI V4 SameValue
          CFI V5 SameValue
          CFI V6 SameValue
          CFI V7 SameValue
          CFI V8 SameValue
          CFI V9 SameValue
          CFI V10 SameValue
          CFI V11 SameValue
          CFI V12 SameValue
          CFI V13 SameValue
          CFI V14 SameValue
          CFI V15 SameValue
          CFI PSPH Undefined
          CFI PSPL Undefined
          CFI XSPH Undefined
          CFI XSPL Undefined
          CFI ?RET Concat
          CFI ?BRET_EXT SameValue
          CFI ?RET_HIGH Frame(CFA_SP, 2)
          CFI ?RET_LOW Frame(CFA_SP, 1)
          CFI EndCommon cfiCommon1
        
AF_DataRequest      SYMBOL "AF_DataRequest"
`??AF_DataRequest::?relay` SYMBOL "?relay", AF_DataRequest
HalLcdWriteString   SYMBOL "HalLcdWriteString"
`??HalLcdWriteString::?relay` SYMBOL "?relay", HalLcdWriteString
HalLedSet           SYMBOL "HalLedSet"
`??HalLedSet::?relay` SYMBOL "?relay", HalLedSet
HalUARTOpen         SYMBOL "HalUARTOpen"
`??HalUARTOpen::?relay` SYMBOL "?relay", HalUARTOpen
HalUARTRead         SYMBOL "HalUARTRead"
`??HalUARTRead::?relay` SYMBOL "?relay", HalUARTRead
HalUARTWrite        SYMBOL "HalUARTWrite"
`??HalUARTWrite::?relay` SYMBOL "?relay", HalUARTWrite
RegisterForKeys     SYMBOL "RegisterForKeys"
`??RegisterForKeys::?relay` SYMBOL "?relay", RegisterForKeys
ZDO_ParseEPListRsp  SYMBOL "ZDO_ParseEPListRsp"
`??ZDO_ParseEPListRsp::?relay` SYMBOL "?relay", ZDO_ParseEPListRsp
ZDO_RegisterForZDOMsg SYMBOL "ZDO_RegisterForZDOMsg"
`??ZDO_RegisterForZDOMsg::?relay` SYMBOL "?relay", ZDO_RegisterForZDOMsg
ZDP_EndDeviceBindReq SYMBOL "ZDP_EndDeviceBindReq"
`??ZDP_EndDeviceBindReq::?relay` SYMBOL "?relay", ZDP_EndDeviceBindReq
_itoa               SYMBOL "_itoa"
`??_itoa::?relay`   SYMBOL "?relay", _itoa
afRegister          SYMBOL "afRegister"
`??afRegister::?relay` SYMBOL "?relay", afRegister
dllInit             SYMBOL "dllInit"
`??dllInit::?relay` SYMBOL "?relay", dllInit
getCmd              SYMBOL "getCmd"
`??getCmd::?relay`  SYMBOL "?relay", getCmd
getDataFromPkt      SYMBOL "getDataFromPkt"
`??getDataFromPkt::?relay` SYMBOL "?relay", getDataFromPkt
getIDFromPkt        SYMBOL "getIDFromPkt"
`??getIDFromPkt::?relay` SYMBOL "?relay", getIDFromPkt
getSignalAddress    SYMBOL "getSignalAddress"
`??getSignalAddress::?relay` SYMBOL "?relay", getSignalAddress
lookUpInit          SYMBOL "lookUpInit"
`??lookUpInit::?relay` SYMBOL "?relay", lookUpInit
osal_mem_free       SYMBOL "osal_mem_free"
`??osal_mem_free::?relay` SYMBOL "?relay", osal_mem_free
osal_msg_deallocate SYMBOL "osal_msg_deallocate"
`??osal_msg_deallocate::?relay` SYMBOL "?relay", osal_msg_deallocate
osal_msg_receive    SYMBOL "osal_msg_receive"
`??osal_msg_receive::?relay` SYMBOL "?relay", osal_msg_receive
osal_set_event      SYMBOL "osal_set_event"
`??osal_set_event::?relay` SYMBOL "?relay", osal_set_event
osal_start_timerEx  SYMBOL "osal_start_timerEx"
`??osal_start_timerEx::?relay` SYMBOL "?relay", osal_start_timerEx
osal_strlen         SYMBOL "osal_strlen"
`??osal_strlen::?relay` SYMBOL "?relay", osal_strlen
processFrame        SYMBOL "processFrame"
`??processFrame::?relay` SYMBOL "?relay", processFrame
sendDataToPC        SYMBOL "sendDataToPC"
`??sendDataToPC::?relay` SYMBOL "?relay", sendDataToPC
updateLookUpTable   SYMBOL "updateLookUpTable"
`??updateLookUpTable::?relay` SYMBOL "?relay", updateLookUpTable
GenericApp_Init     SYMBOL "GenericApp_Init"
`??GenericApp_Init::?relay` SYMBOL "?relay", GenericApp_Init
GenericApp_ProcessEvent SYMBOL "GenericApp_ProcessEvent"
`??GenericApp_ProcessEvent::?relay` SYMBOL "?relay", GenericApp_ProcessEvent

        EXTERN `??AF_DataRequest::?relay`
        FUNCTION `??AF_DataRequest::?relay`,00H
        EXTERN `??HalLcdWriteString::?relay`
        FUNCTION `??HalLcdWriteString::?relay`,00H
        EXTERN `??HalLedSet::?relay`
        FUNCTION `??HalLedSet::?relay`,00H
        EXTERN `??HalUARTOpen::?relay`
        FUNCTION `??HalUARTOpen::?relay`,00H
        EXTERN `??HalUARTRead::?relay`
        FUNCTION `??HalUARTRead::?relay`,00H
        EXTERN `??HalUARTWrite::?relay`
        FUNCTION `??HalUARTWrite::?relay`,00H
        EXTERN `??RegisterForKeys::?relay`
        FUNCTION `??RegisterForKeys::?relay`,00H
        EXTERN `??ZDO_ParseEPListRsp::?relay`
        FUNCTION `??ZDO_ParseEPListRsp::?relay`,00H
        EXTERN `??ZDO_RegisterForZDOMsg::?relay`
        FUNCTION `??ZDO_RegisterForZDOMsg::?relay`,00H
        EXTERN `??ZDP_EndDeviceBindReq::?relay`
        FUNCTION `??ZDP_EndDeviceBindReq::?relay`,00H
        EXTERN `??_itoa::?relay`
        FUNCTION `??_itoa::?relay`,00H
        EXTERN `??afRegister::?relay`
        FUNCTION `??afRegister::?relay`,00H
        EXTERN `??dllInit::?relay`
        FUNCTION `??dllInit::?relay`,00H
        EXTERN `??getCmd::?relay`
        FUNCTION `??getCmd::?relay`,00H
        EXTERN `??getDataFromPkt::?relay`
        FUNCTION `??getDataFromPkt::?relay`,00H
        EXTERN `??getIDFromPkt::?relay`
        FUNCTION `??getIDFromPkt::?relay`,00H
        EXTERN `??getSignalAddress::?relay`
        FUNCTION `??getSignalAddress::?relay`,00H
        EXTERN `??lookUpInit::?relay`
        FUNCTION `??lookUpInit::?relay`,00H
        EXTERN `??osal_mem_free::?relay`
        FUNCTION `??osal_mem_free::?relay`,00H
        EXTERN `??osal_msg_deallocate::?relay`
        FUNCTION `??osal_msg_deallocate::?relay`,00H
        EXTERN `??osal_msg_receive::?relay`
        FUNCTION `??osal_msg_receive::?relay`,00H
        EXTERN `??osal_set_event::?relay`
        FUNCTION `??osal_set_event::?relay`,00H
        EXTERN `??osal_start_timerEx::?relay`
        FUNCTION `??osal_start_timerEx::?relay`,00H
        EXTERN `??osal_strlen::?relay`
        FUNCTION `??osal_strlen::?relay`,00H
        EXTERN `??processFrame::?relay`
        FUNCTION `??processFrame::?relay`,00H
        EXTERN `??sendDataToPC::?relay`
        FUNCTION `??sendDataToPC::?relay`,00H
        EXTERN `??updateLookUpTable::?relay`
        FUNCTION `??updateLookUpTable::?relay`,00H
        EXTERN AF_DataRequest
        FUNCTION AF_DataRequest,0202H
        ARGFRAME ISTACK, 0, STACK
        ARGFRAME PSTACK, 0, STACK
        ARGFRAME XSTACK, 80, STACK
        ARGFRAME IOVERLAY, 0, STATIC
        ARGFRAME DOVERLAY, 0, STATIC
        EXTERN HalLcdWriteString
        FUNCTION HalLcdWriteString,0202H
        ARGFRAME ISTACK, 0, STACK
        ARGFRAME PSTACK, 0, STACK
        ARGFRAME XSTACK, 71, STACK
        ARGFRAME IOVERLAY, 0, STATIC
        ARGFRAME DOVERLAY, 0, STATIC
        EXTERN HalLedSet
        FUNCTION HalLedSet,0202H
        ARGFRAME ISTACK, 0, STACK
        ARGFRAME PSTACK, 0, STACK
        ARGFRAME XSTACK, 71, STACK
        ARGFRAME IOVERLAY, 0, STATIC
        ARGFRAME DOVERLAY, 0, STATIC
        EXTERN HalUARTOpen
        FUNCTION HalUARTOpen,0202H
        ARGFRAME ISTACK, 0, STACK
        ARGFRAME PSTACK, 0, STACK
        ARGFRAME XSTACK, 9, STACK
        ARGFRAME IOVERLAY, 0, STATIC
        ARGFRAME DOVERLAY, 0, STATIC
        EXTERN HalUARTRead
        FUNCTION HalUARTRead,0202H
        ARGFRAME ISTACK, 0, STACK
        ARGFRAME PSTACK, 0, STACK
        ARGFRAME XSTACK, 71, STACK
        ARGFRAME IOVERLAY, 0, STATIC
        ARGFRAME DOVERLAY, 0, STATIC
        EXTERN HalUARTWrite
        FUNCTION HalUARTWrite,0202H
        ARGFRAME ISTACK, 0, STACK
        ARGFRAME PSTACK, 0, STACK
        ARGFRAME XSTACK, 71, STACK
        ARGFRAME IOVERLAY, 0, STATIC
        ARGFRAME DOVERLAY, 0, STATIC
        EXTERN RegisterForKeys
        FUNCTION RegisterForKeys,0202H
        ARGFRAME ISTACK, 0, STACK
        ARGFRAME PSTACK, 0, STACK
        ARGFRAME XSTACK, 9, STACK
        ARGFRAME IOVERLAY, 0, STATIC
        ARGFRAME DOVERLAY, 0, STATIC
        EXTERN ZDO_ParseEPListRsp
        FUNCTION ZDO_ParseEPListRsp,0202H
        ARGFRAME ISTACK, 0, STACK
        ARGFRAME PSTACK, 0, STACK
        ARGFRAME XSTACK, 71, STACK
        ARGFRAME IOVERLAY, 0, STATIC
        ARGFRAME DOVERLAY, 0, STATIC
        EXTERN ZDO_RegisterForZDOMsg
        FUNCTION ZDO_RegisterForZDOMsg,0202H
        ARGFRAME ISTACK, 0, STACK
        ARGFRAME PSTACK, 0, STACK
        ARGFRAME XSTACK, 9, STACK
        ARGFRAME IOVERLAY, 0, STATIC
        ARGFRAME DOVERLAY, 0, STATIC
        EXTERN ZDP_EndDeviceBindReq
        FUNCTION ZDP_EndDeviceBindReq,0202H
        ARGFRAME ISTACK, 0, STACK
        ARGFRAME PSTACK, 0, STACK
        ARGFRAME XSTACK, 80, STACK
        ARGFRAME IOVERLAY, 0, STATIC
        ARGFRAME DOVERLAY, 0, STATIC
        EXTERN _itoa
        FUNCTION _itoa,0202H
        ARGFRAME ISTACK, 0, STACK
        ARGFRAME PSTACK, 0, STACK
        ARGFRAME XSTACK, 71, STACK
        ARGFRAME IOVERLAY, 0, STATIC
        ARGFRAME DOVERLAY, 0, STATIC
        EXTERN afRegister
        FUNCTION afRegister,0202H
        ARGFRAME ISTACK, 0, STACK
        ARGFRAME PSTACK, 0, STACK
        ARGFRAME XSTACK, 9, STACK
        ARGFRAME IOVERLAY, 0, STATIC
        ARGFRAME DOVERLAY, 0, STATIC
        EXTERN dllInit
        FUNCTION dllInit,0202H
        ARGFRAME ISTACK, 0, STACK
        ARGFRAME PSTACK, 0, STACK
        ARGFRAME XSTACK, 9, STACK
        ARGFRAME IOVERLAY, 0, STATIC
        ARGFRAME DOVERLAY, 0, STATIC
        EXTERN getCmd
        FUNCTION getCmd,0202H
        ARGFRAME ISTACK, 0, STACK
        ARGFRAME PSTACK, 0, STACK
        ARGFRAME XSTACK, 71, STACK
        ARGFRAME IOVERLAY, 0, STATIC
        ARGFRAME DOVERLAY, 0, STATIC
        EXTERN getDataFromPkt
        FUNCTION getDataFromPkt,0202H
        ARGFRAME ISTACK, 0, STACK
        ARGFRAME PSTACK, 0, STACK
        ARGFRAME XSTACK, 71, STACK
        ARGFRAME IOVERLAY, 0, STATIC
        ARGFRAME DOVERLAY, 0, STATIC
        EXTERN getIDFromPkt
        FUNCTION getIDFromPkt,0202H
        ARGFRAME ISTACK, 0, STACK
        ARGFRAME PSTACK, 0, STACK
        ARGFRAME XSTACK, 71, STACK
        ARGFRAME IOVERLAY, 0, STATIC
        ARGFRAME DOVERLAY, 0, STATIC
        EXTERN getSignalAddress
        FUNCTION getSignalAddress,0202H
        ARGFRAME ISTACK, 0, STACK
        ARGFRAME PSTACK, 0, STACK
        ARGFRAME XSTACK, 71, STACK
        ARGFRAME IOVERLAY, 0, STATIC
        ARGFRAME DOVERLAY, 0, STATIC
        EXTERN lookUpInit
        FUNCTION lookUpInit,0202H
        ARGFRAME ISTACK, 0, STACK
        ARGFRAME PSTACK, 0, STACK
        ARGFRAME XSTACK, 9, STACK
        ARGFRAME IOVERLAY, 0, STATIC
        ARGFRAME DOVERLAY, 0, STATIC
        EXTERN osal_mem_free
        FUNCTION osal_mem_free,0202H
        ARGFRAME ISTACK, 0, STACK
        ARGFRAME PSTACK, 0, STACK
        ARGFRAME XSTACK, 71, STACK
        ARGFRAME IOVERLAY, 0, STATIC
        ARGFRAME DOVERLAY, 0, STATIC
        EXTERN osal_msg_deallocate
        FUNCTION osal_msg_deallocate,0202H
        ARGFRAME ISTACK, 0, STACK
        ARGFRAME PSTACK, 0, STACK
        ARGFRAME XSTACK, 71, STACK
        ARGFRAME IOVERLAY, 0, STATIC
        ARGFRAME DOVERLAY, 0, STATIC
        EXTERN osal_msg_receive
        FUNCTION osal_msg_receive,0202H
        ARGFRAME ISTACK, 0, STACK
        ARGFRAME PSTACK, 0, STACK
        ARGFRAME XSTACK, 71, STACK
        ARGFRAME IOVERLAY, 0, STATIC
        ARGFRAME DOVERLAY, 0, STATIC
        EXTERN osal_set_event
        FUNCTION osal_set_event,0202H
        ARGFRAME ISTACK, 0, STACK
        ARGFRAME PSTACK, 0, STACK
        ARGFRAME XSTACK, 71, STACK
        ARGFRAME IOVERLAY, 0, STATIC
        ARGFRAME DOVERLAY, 0, STATIC
        EXTERN osal_start_timerEx
        FUNCTION osal_start_timerEx,0202H
        ARGFRAME ISTACK, 0, STACK
        ARGFRAME PSTACK, 0, STACK
        ARGFRAME XSTACK, 75, STACK
        ARGFRAME IOVERLAY, 0, STATIC
        ARGFRAME DOVERLAY, 0, STATIC
        EXTERN osal_strlen
        FUNCTION osal_strlen,0202H
        ARGFRAME ISTACK, 0, STACK
        ARGFRAME PSTACK, 0, STACK
        ARGFRAME XSTACK, 71, STACK
        ARGFRAME IOVERLAY, 0, STATIC
        ARGFRAME DOVERLAY, 0, STATIC
        EXTERN processFrame
        FUNCTION processFrame,0202H
        ARGFRAME ISTACK, 0, STACK
        ARGFRAME PSTACK, 0, STACK
        ARGFRAME XSTACK, 71, STACK
        ARGFRAME IOVERLAY, 0, STATIC
        ARGFRAME DOVERLAY, 0, STATIC
        EXTERN sendDataToPC
        FUNCTION sendDataToPC,0202H
        ARGFRAME ISTACK, 0, STACK
        ARGFRAME PSTACK, 0, STACK
        ARGFRAME XSTACK, 71, STACK
        ARGFRAME IOVERLAY, 0, STATIC
        ARGFRAME DOVERLAY, 0, STATIC
        EXTERN updateLookUpTable
        FUNCTION updateLookUpTable,0202H
        ARGFRAME ISTACK, 0, STACK
        ARGFRAME PSTACK, 0, STACK
        ARGFRAME XSTACK, 78, STACK
        ARGFRAME IOVERLAY, 0, STATIC
        ARGFRAME DOVERLAY, 0, STATIC

// C:\Users\ljuic\Desktop\New folder\ZigBeeCoordinator\Projects\zstack\Samples\GenericApp\Source\GenericApp.c
//    1 /******************************************************************************
//    2   Filename:       GenericApp.c
//    3   Revised:        $Date: 2014-09-07 13:36:30 -0700 (Sun, 07 Sep 2014) $
//    4   Revision:       $Revision: 40046 $
//    5 
//    6   Description:    Generic Application (no Profile).
//    7 
//    8 
//    9   Copyright 2004-2014 Texas Instruments Incorporated. All rights reserved.
//   10 
//   11   IMPORTANT: Your use of this Software is limited to those specific rights
//   12   granted under the terms of a software license agreement between the user
//   13   who downloaded the software, his/her employer (which must be your employer)
//   14   and Texas Instruments Incorporated (the "License"). You may not use this
//   15   Software unless you agree to abide by the terms of the License. The License
//   16   limits your use, and you acknowledge, that the Software may not be modified,
//   17   copied or distributed unless embedded on a Texas Instruments microcontroller
//   18   or used solely and exclusively in conjunction with a Texas Instruments radio
//   19   frequency transceiver, which is integrated into your product. Other than for
//   20   the foregoing purpose, you may not use, reproduce, copy, prepare derivative
//   21   works of, modify, distribute, perform, display or sell this Software and/or
//   22   its documentation for any purpose.
//   23 
//   24   YOU FURTHER ACKNOWLEDGE AND AGREE THAT THE SOFTWARE AND DOCUMENTATION ARE
//   25   PROVIDED “AS IS” WITHOUT WARRANTY OF ANY KIND, EITHER EXPRESS OR IMPLIED,
//   26   INCLUDING WITHOUT LIMITATION, ANY WARRANTY OF MERCHANTABILITY, TITLE,
//   27   NON-INFRINGEMENT AND FITNESS FOR A PARTICULAR PURPOSE. IN NO EVENT SHALL
//   28   TEXAS INSTRUMENTS OR ITS LICENSORS BE LIABLE OR OBLIGATED UNDER CONTRACT,
//   29   NEGLIGENCE, STRICT LIABILITY, CONTRIBUTION, BREACH OF WARRANTY, OR OTHER
//   30   LEGAL EQUITABLE THEORY ANY DIRECT OR INDIRECT DAMAGES OR EXPENSES
//   31   INCLUDING BUT NOT LIMITED TO ANY INCIDENTAL, SPECIAL, INDIRECT, PUNITIVE
//   32   OR CONSEQUENTIAL DAMAGES, LOST PROFITS OR LOST DATA, COST OF PROCUREMENT
//   33   OF SUBSTITUTE GOODS, TECHNOLOGY, SERVICES, OR ANY CLAIMS BY THIRD PARTIES
//   34   (INCLUDING BUT NOT LIMITED TO ANY DEFENSE THEREOF), OR OTHER SIMILAR COSTS.
//   35 
//   36   Should you have any questions regarding your right to use this Software,
//   37   contact Texas Instruments Incorporated at www.TI.com.
//   38 ******************************************************************************/
//   39 
//   40 /*********************************************************************
//   41   This application isn't intended to do anything useful - it is
//   42   intended to be a simple example of an application's structure.
//   43 
//   44   This application periodically sends a "Hello World" message to
//   45   another "Generic" application (see 'txMsgDelay'). The application
//   46   will also receive "Hello World" packets.
//   47 
//   48   This application doesn't have a profile, so it handles everything
//   49   directly - by itself.
//   50 
//   51   Key control:
//   52     SW1:  changes the delay between TX packets
//   53     SW2:  initiates end device binding
//   54     SW3:
//   55     SW4:  initiates a match description request
//   56 *********************************************************************/
//   57 
//   58 /*********************************************************************
//   59  * INCLUDES
//   60  */
//   61 #include "OSAL.h"
//   62 #include "AF.h"
//   63 #include "ZDApp.h"
//   64 #include "ZDObject.h"
//   65 #include "ZDProfile.h"
//   66 
//   67 #include "GenericApp.h"
//   68 #include "DebugTrace.h"
//   69 
//   70 #if !defined( WIN32 ) || defined( ZBIT )
//   71   #include "OnBoard.h"
//   72 #endif
//   73 
//   74 /* HAL */
//   75 #include "hal_lcd.h"
//   76 #include "hal_led.h"
//   77 #include "hal_key.h"
//   78 #include "hal_uart.h"
//   79 #include "hal_adc.h"
//   80 
//   81 /* RTOS */
//   82 #if defined( IAR_ARMCM3_LM )
//   83 #include "RTOS_App.h"
//   84 #endif
//   85 
//   86 
//   87 
//   88 
//   89 
//   90 
//   91 
//   92 ////////////////////////////////////////////////////////////////////////////////////////////
//   93 //#include "includes/hal_driver.h"
//   94 #include "hal_drivers.h"
//   95 
//   96 #include "includes/dll.h"
//   97 #include "includes/look_up_table.h"
//   98 
//   99 #include "includes/circular_buffer.h"
//  100 
//  101 #include <stdlib.h>
//  102 #include <stdio.h>
//  103 
//  104 ////////////////////////////////////////////////////////////////////////////////////////////
//  105 
//  106 /*********************************************************************
//  107  * MACROS
//  108  */
//  109 
//  110 
//  111 #define GENERICAPP_ENDPOINT           10
//  112 
//  113 #define GENERICAPP_PROFID             0x0F04
//  114 #define GENERICAPP_DEVICEID           0x0001
//  115 #define GENERICAPP_DEVICE_VERSION     0
//  116 #define GENERICAPP_FLAGS              0
//  117 
//  118 #define GENERICAPP_MAX_CLUSTERS       1
//  119 #define GENERICAPP_CLUSTERID          1
//  120 
//  121 
//  122 #define MAX_NUMBER_OF_ENDDEVICES      10
//  123 
//  124 
//  125 // magnetic switch macros
//  126 #define DOOR_CLOSED_DETECTION P1_2
//  127 #define TRUE 1
//  128 #define CLOSED 1
//  129 #define OPENED 0
//  130 // magnetic switch macros end
//  131    
//  132 
//  133 #define HAL_UART_ISR 2
//  134 
//  135 #define HAL_UART_MSECS_TO_TICKS    33
//  136 
//  137 #if !defined HAL_UART_ISR_IDLE
//  138 #define HAL_UART_ISR_IDLE         (6 * HAL_UART_MSECS_TO_TICKS)
//  139 #endif
//  140 
//  141 #if !defined HAL_UART_ISR_RX_MAX
//  142 #define HAL_UART_ISR_RX_MAX        128
//  143 #endif
//  144 #if !defined HAL_UART_ISR_TX_MAX
//  145 #define HAL_UART_ISR_TX_MAX        HAL_UART_ISR_RX_MAX
//  146 #endif
//  147    
//  148 /*********************************************************************
//  149  * CONSTANTS
//  150  */
//  151 
//  152 /*********************************************************************
//  153  * TYPEDEFS
//  154  */
//  155 
//  156 /*********************************************************************
//  157  * GLOBAL VARIABLES
//  158  */
//  159 ////////////////////////////////////////////////////////////////////////////////////////////
//  160 //CircularBuffer_t cMain;

        RSEG XDATA_Z:XDATA:NOROOT(0)
        DATA8
//  161 uint8 dataRdy;
dataRdy:
        DS 1
        REQUIRE __INIT_XDATA_Z

        RSEG XDATA_Z:XDATA:NOROOT(0)
        DATA8
//  162 LookUpTable_t lutData[20];
lutData:
        DS 200
        REQUIRE __INIT_XDATA_Z

        RSEG XDATA_Z:XDATA:NOROOT(0)
        DATA16
//  163 uint8 *rxBuffer;
rxBuffer:
        DS 2
        REQUIRE __INIT_XDATA_Z

        RSEG XDATA_Z:XDATA:NOROOT(0)
        DATA8
//  164 halUARTCfg_t uartConfig;
uartConfig:
        DS 29
        REQUIRE __INIT_XDATA_Z
//  165 ////////////////////////////////////////////////////////////////////////////////////////////
//  166 

        RSEG XDATA_I:XDATA:NOROOT(0)
//  167 uint8 coin = 1;
coin:
        DATA8
        DS 1
        REQUIRE `?<Initializer for coin>`
        REQUIRE __INIT_XDATA_I

        RSEG XDATA_Z:XDATA:NOROOT(0)
        DATA8
//  168 char prevData = 0;
prevData:
        DS 1
        REQUIRE __INIT_XDATA_Z
//  169 
//  170 

        RSEG XDATA_I:XDATA:NOROOT(0)
//  171 uint8 keyPressSW4 = 1;
keyPressSW4:
        DATA8
        DS 1
        REQUIRE `?<Initializer for keyPressSW4>`
        REQUIRE __INIT_XDATA_I
//  172 

        RSEG XDATA_Z:XDATA:NOROOT(0)
        DATA8
//  173 uint8 dataBuffer[10];
dataBuffer:
        DS 10
        REQUIRE __INIT_XDATA_Z
//  174    

        RSEG XDATA_Z:XDATA:NOROOT(0)
        DATA16
//  175 uint8 *buff;
buff:
        DS 2
        REQUIRE __INIT_XDATA_Z
//  176 

        RSEG XDATA_Z:XDATA:NOROOT(0)
        DATA16
//  177 int counter = 0;
counter:
        DS 2
        REQUIRE __INIT_XDATA_Z
//  178 
//  179 

        RSEG XDATA_Z:XDATA:NOROOT(0)
        DATA8
//  180 uint16 shortAddressOfEndDevice[MAX_NUMBER_OF_ENDDEVICES] = {0,0};
shortAddressOfEndDevice:
        DS 20
        REQUIRE __INIT_XDATA_Z

        RSEG XDATA_Z:XDATA:NOROOT(0)
        DATA8
//  181 uint16 SAddr[MAX_NUMBER_OF_ENDDEVICES] = {0,0};
SAddr:
        DS 20
        REQUIRE __INIT_XDATA_Z
//  182 

        RSEG XDATA_Z:XDATA:NOROOT(0)
        DATA8
//  183 uint8 index = 0;
index:
        DS 1
        REQUIRE __INIT_XDATA_Z
//  184 

        RSEG XDATA_Z:XDATA:NOROOT(0)
        DATA8
//  185 uint8 brojac = 0;
brojac:
        DS 1
        REQUIRE __INIT_XDATA_Z
//  186 
//  187 
//  188 // This list should be filled with Application specific Cluster IDs.

        RSEG XDATA_ROM_C:CONST:REORDER:NOROOT(0)
        DATA16
//  189 const cId_t GenericApp_ClusterList[GENERICAPP_MAX_CLUSTERS] =
GenericApp_ClusterList:
        DW 1
//  190 {
//  191   GENERICAPP_CLUSTERID
//  192 };
//  193 

        RSEG XDATA_ROM_C:CONST:REORDER:NOROOT(0)
        DATA8
//  194 const SimpleDescriptionFormat_t GenericApp_SimpleDesc =
GenericApp_SimpleDesc:
        DB 10
        DATA16
        DW 3844
        DW 1
        DATA8
        DB 0
        DB 1
        DATA16
        DW GenericApp_ClusterList
        DATA8
        DB 1
        DATA16
        DW GenericApp_ClusterList
//  195 {
//  196   GENERICAPP_ENDPOINT,              //  int Endpoint;
//  197   GENERICAPP_PROFID,                //  uint16 AppProfId[2];
//  198   GENERICAPP_DEVICEID,              //  uint16 AppDeviceId[2];
//  199   GENERICAPP_DEVICE_VERSION,        //  int   AppDevVer:4;
//  200   GENERICAPP_FLAGS,                 //  int   AppFlags:4;
//  201   GENERICAPP_MAX_CLUSTERS,          //  byte  AppNumInClusters;
//  202   (cId_t *)GenericApp_ClusterList,  //  byte *pAppInClusterList;
//  203   GENERICAPP_MAX_CLUSTERS,          //  byte  AppNumInClusters;
//  204   (cId_t *)GenericApp_ClusterList   //  byte *pAppInClusterList;
//  205 };
//  206 
//  207 // This is the Endpoint/Interface description.  It is defined here, but
//  208 // filled-in in GenericApp_Init().  Another way to go would be to fill
//  209 // in the structure here and make it a "const" (in code space).  The
//  210 // way it's defined in this sample app it is define in RAM.

        RSEG XDATA_Z:XDATA:NOROOT(0)
        DATA8
//  211 endPointDesc_t GenericApp_epDesc;
GenericApp_epDesc:
        DS 6
        REQUIRE __INIT_XDATA_Z
//  212 
//  213 /*********************************************************************
//  214  * EXTERNAL VARIABLES
//  215  */
//  216 
//  217 /*********************************************************************
//  218  * EXTERNAL FUNCTIONS
//  219  */
//  220 
//  221   extern void uartInit(void);
//  222   extern void uartSend(char);
//  223  // void LazoInit(void);
//  224 
//  225 /*********************************************************************
//  226  * LOCAL VARIABLES
//  227  */

        RSEG XDATA_Z:XDATA:NOROOT(0)
        DATA8
//  228 byte GenericApp_TaskID;   // Task ID for internal task/event processing
GenericApp_TaskID:
        DS 1
        REQUIRE __INIT_XDATA_Z
//  229                           // This variable will be received when
//  230                           // GenericApp_Init() is called.
//  231 

        RSEG XDATA_Z:XDATA:NOROOT(0)
        DATA8
//  232 devStates_t GenericApp_NwkState;
GenericApp_NwkState:
        DS 1
        REQUIRE __INIT_XDATA_Z
//  233 

        RSEG XDATA_Z:XDATA:NOROOT(0)
        DATA8
//  234 byte GenericApp_TransID;  // This is the unique message ID (counter)
GenericApp_TransID:
        DS 1
        REQUIRE __INIT_XDATA_Z
//  235 

        RSEG XDATA_Z:XDATA:NOROOT(0)
        DATA8
//  236 afAddrType_t GenericApp_DstAddr;
GenericApp_DstAddr:
        DS 12
        REQUIRE __INIT_XDATA_Z

        RSEG XDATA_Z:XDATA:NOROOT(0)
        DATA8
//  237 afAddrType_t GenericApp_DstAddress;//GenericApp_DstAddress
GenericApp_DstAddress:
        DS 12
        REQUIRE __INIT_XDATA_Z
//  238 //////////////////////////////////////////////////////////////////////////////  Mozda izbrisati ovo
//  239 
//  240 //afAddrType_t GenericApp_DstAddress[MAX_NUMBER_OF_ENDDEVICES] = {0,0};
//  241 
//  242 // Number of recieved messages

        RSEG XDATA_Z:XDATA:NOROOT(0)
        DATA16
//  243 static uint16 rxMsgCount;
rxMsgCount:
        DS 2
        REQUIRE __INIT_XDATA_Z
//  244 
//  245 // Time interval between sending messages

        RSEG XDATA_I:XDATA:NOROOT(0)
//  246 static uint32 txMsgDelay = GENERICAPP_SEND_MSG_TIMEOUT;
txMsgDelay:
        DATA32
        DS 4
        REQUIRE `?<Initializer for txMsgDelay>`
        REQUIRE __INIT_XDATA_I
//  247 
//  248 /*********************************************************************
//  249  * LOCAL FUNCTIONS
//  250  */
//  251 static void GenericApp_ProcessZDOMsgs( zdoIncomingMsg_t *inMsg );
//  252 //static void GenericApp_HandleKeys( byte shift, byte keys );
//  253 static void GenericApp_MessageMSGCB( afIncomingMSGPacket_t *pckt );
//  254 static void GenericApp_SendTheMessage( void );
//  255 
//  256 //static void GenericApp_EndPointList(uint16);
//  257 
//  258 #if defined( IAR_ARMCM3_LM )
//  259 static void GenericApp_ProcessRtosMessage( void );
//  260 #endif
//  261 
//  262 /*********************************************************************
//  263  * NETWORK LAYER CALLBACKS
//  264  */
//  265 
//  266 /*********************************************************************
//  267  * PUBLIC FUNCTIONS
//  268  */
//  269 
//  270 /*********************************************************************
//  271  * @fn      GenericApp_Init
//  272  *
//  273  * @brief   Initialization function for the Generic App Task.
//  274  *          This is called during initialization and should contain
//  275  *          any application specific initialization (ie. hardware
//  276  *          initialization/setup, table initialization, power up
//  277  *          notificaiton ... ).
//  278  *
//  279  * @param   task_id - the ID assigned by OSAL.  This ID should be
//  280  *                    used to send messages and set timers.
//  281  *
//  282  * @return  none
//  283  */
//  284 
//  285 

        RSEG BANKED_CODE:HUGECODE:NOROOT(0)
//  286 void GenericApp_Init( uint8 task_id )
GenericApp_Init:
          CFI Block cfiBlock0 Using cfiCommon0
          CFI Function GenericApp_Init
        CODE
//  287 {
        FUNCALL GenericApp_Init, afRegister
        LOCFRAME ISTACK, 0, STACK
        LOCFRAME PSTACK, 0, STACK
        LOCFRAME XSTACK, 9, STACK
        LOCFRAME IOVERLAY, 0, STATIC
        LOCFRAME DOVERLAY, 0, STATIC
        ARGFRAME ISTACK, 0, STACK
        ARGFRAME PSTACK, 0, STACK
        ARGFRAME XSTACK, 9, STACK
        ARGFRAME IOVERLAY, 0, STATIC
        ARGFRAME DOVERLAY, 0, STATIC
        FUNCALL GenericApp_Init, RegisterForKeys
        LOCFRAME ISTACK, 0, STACK
        LOCFRAME PSTACK, 0, STACK
        LOCFRAME XSTACK, 9, STACK
        LOCFRAME IOVERLAY, 0, STATIC
        LOCFRAME DOVERLAY, 0, STATIC
        ARGFRAME ISTACK, 0, STACK
        ARGFRAME PSTACK, 0, STACK
        ARGFRAME XSTACK, 9, STACK
        ARGFRAME IOVERLAY, 0, STATIC
        ARGFRAME DOVERLAY, 0, STATIC
        FUNCALL GenericApp_Init, HalLcdWriteString
        LOCFRAME ISTACK, 0, STACK
        LOCFRAME PSTACK, 0, STACK
        LOCFRAME XSTACK, 9, STACK
        LOCFRAME IOVERLAY, 0, STATIC
        LOCFRAME DOVERLAY, 0, STATIC
        ARGFRAME ISTACK, 0, STACK
        ARGFRAME PSTACK, 0, STACK
        ARGFRAME XSTACK, 9, STACK
        ARGFRAME IOVERLAY, 0, STATIC
        ARGFRAME DOVERLAY, 0, STATIC
        FUNCALL GenericApp_Init, ZDO_RegisterForZDOMsg
        LOCFRAME ISTACK, 0, STACK
        LOCFRAME PSTACK, 0, STACK
        LOCFRAME XSTACK, 9, STACK
        LOCFRAME IOVERLAY, 0, STATIC
        LOCFRAME DOVERLAY, 0, STATIC
        ARGFRAME ISTACK, 0, STACK
        ARGFRAME PSTACK, 0, STACK
        ARGFRAME XSTACK, 9, STACK
        ARGFRAME IOVERLAY, 0, STATIC
        ARGFRAME DOVERLAY, 0, STATIC
        FUNCALL GenericApp_Init, ZDO_RegisterForZDOMsg
        LOCFRAME ISTACK, 0, STACK
        LOCFRAME PSTACK, 0, STACK
        LOCFRAME XSTACK, 9, STACK
        LOCFRAME IOVERLAY, 0, STATIC
        LOCFRAME DOVERLAY, 0, STATIC
        ARGFRAME ISTACK, 0, STACK
        ARGFRAME PSTACK, 0, STACK
        ARGFRAME XSTACK, 9, STACK
        ARGFRAME IOVERLAY, 0, STATIC
        ARGFRAME DOVERLAY, 0, STATIC
        FUNCALL GenericApp_Init, dllInit
        LOCFRAME ISTACK, 0, STACK
        LOCFRAME PSTACK, 0, STACK
        LOCFRAME XSTACK, 9, STACK
        LOCFRAME IOVERLAY, 0, STATIC
        LOCFRAME DOVERLAY, 0, STATIC
        ARGFRAME ISTACK, 0, STACK
        ARGFRAME PSTACK, 0, STACK
        ARGFRAME XSTACK, 9, STACK
        ARGFRAME IOVERLAY, 0, STATIC
        ARGFRAME DOVERLAY, 0, STATIC
        FUNCALL GenericApp_Init, lookUpInit
        LOCFRAME ISTACK, 0, STACK
        LOCFRAME PSTACK, 0, STACK
        LOCFRAME XSTACK, 9, STACK
        LOCFRAME IOVERLAY, 0, STATIC
        LOCFRAME DOVERLAY, 0, STATIC
        ARGFRAME ISTACK, 0, STACK
        ARGFRAME PSTACK, 0, STACK
        ARGFRAME XSTACK, 9, STACK
        ARGFRAME IOVERLAY, 0, STATIC
        ARGFRAME DOVERLAY, 0, STATIC
        FUNCALL GenericApp_Init, HalUARTOpen
        LOCFRAME ISTACK, 0, STACK
        LOCFRAME PSTACK, 0, STACK
        LOCFRAME XSTACK, 9, STACK
        LOCFRAME IOVERLAY, 0, STATIC
        LOCFRAME DOVERLAY, 0, STATIC
        ARGFRAME ISTACK, 0, STACK
        ARGFRAME PSTACK, 0, STACK
        ARGFRAME XSTACK, 9, STACK
        ARGFRAME IOVERLAY, 0, STATIC
        ARGFRAME DOVERLAY, 0, STATIC
        MOV     A,#-0x9
        LCALL   ?BANKED_ENTER_XDATA
          CFI DPH0 load(1, XDATA, add(CFA_XSP16, literal(-1)))
          CFI DPL0 load(1, XDATA, add(CFA_XSP16, literal(-2)))
          CFI ?BRET_EXT load(1, XDATA, add(CFA_XSP16, literal(-3)))
          CFI ?RET_HIGH load(1, XDATA, add(CFA_XSP16, literal(-4)))
          CFI ?RET_LOW load(1, XDATA, add(CFA_XSP16, literal(-5)))
          CFI R7 load(1, XDATA, add(CFA_XSP16, literal(-6)))
          CFI V0 load(1, XDATA, add(CFA_XSP16, literal(-7)))
          CFI VB load(1, XDATA, add(CFA_XSP16, literal(-8)))
          CFI R6 load(1, XDATA, add(CFA_XSP16, literal(-9)))
          CFI CFA_SP SP+0
          CFI CFA_XSP16 add(XSP16, 9)
        ; Saved register size: 9
        ; Auto size: 0
        MOV     A,R1
//  288   GenericApp_TaskID = task_id;
        MOV     DPTR,#GenericApp_TaskID
        MOVX    @DPTR,A
//  289   GenericApp_NwkState = DEV_INIT;
        MOV     DPTR,#GenericApp_NwkState
        MOV     A,#0x1
        MOVX    @DPTR,A
//  290   GenericApp_TransID = 0;
        MOV     DPTR,#GenericApp_TransID
        CLR     A
        MOVX    @DPTR,A
//  291   
//  292   // Device hardware initialization can be added here or in main() (Zmain.c).
//  293   // If the hardware is application specific - add it here.
//  294   // If the hardware is other parts of the device add it in main().
//  295 
//  296   //GenericApp_DstAddr.addrMode = (afAddrMode_t)Addr16Bit;
//  297   //GenericApp_DstAddr.endPoint = GENERICAPP_ENDPOINT;
//  298   //GenericApp_DstAddr.addr.shortAddr = 0xFFFF; //0;// NLME_GetShortAddr();//1;*/
//  299 
//  300   // Fill out the endpoint description.
//  301   GenericApp_epDesc.endPoint = GENERICAPP_ENDPOINT;
        MOV     DPTR,#GenericApp_epDesc
        MOV     A,#0xa
        MOVX    @DPTR,A
//  302   GenericApp_epDesc.task_id = &GenericApp_TaskID;
        INC     DPTR
        MOV     A,#GenericApp_TaskID & 0xff
        MOVX    @DPTR,A
        INC     DPTR
        MOV     A,#(GenericApp_TaskID >> 8) & 0xff
        MOVX    @DPTR,A
//  303   GenericApp_epDesc.simpleDesc
//  304             = (SimpleDescriptionFormat_t *)&GenericApp_SimpleDesc;
        INC     DPTR
        MOV     A,#GenericApp_SimpleDesc & 0xff
        MOVX    @DPTR,A
        INC     DPTR
        MOV     A,#(GenericApp_SimpleDesc >> 8) & 0xff
        MOVX    @DPTR,A
//  305   GenericApp_epDesc.latencyReq = noLatencyReqs;
        INC     DPTR
        CLR     A
        MOVX    @DPTR,A
//  306 
//  307   // Register the endpoint description with the AF
//  308   afRegister( &GenericApp_epDesc );
        ; Setup parameters for call to function afRegister
        MOV     R2,#GenericApp_epDesc & 0xff
        MOV     R3,#(GenericApp_epDesc >> 8) & 0xff
        LCALL   `??afRegister::?relay`; Banked call to: afRegister
//  309 
//  310   // Register for all key events - This app will handle all key events
//  311   RegisterForKeys( GenericApp_TaskID );
        ; Setup parameters for call to function RegisterForKeys
        MOV     DPTR,#GenericApp_TaskID
        MOVX    A,@DPTR
        MOV     R1,A
        LCALL   `??RegisterForKeys::?relay`; Banked call to: RegisterForKeys
//  312 
//  313   // Update the display
//  314 #if defined ( LCD_SUPPORTED )
//  315   HalLcdWriteString( "GenericApp", HAL_LCD_LINE_1 );
        ; Setup parameters for call to function HalLcdWriteString
        MOV     R1,#0x1
        MOV     R2,#`?<Constant "GenericApp">` & 0xff
        MOV     R3,#(`?<Constant "GenericApp">` >> 8) & 0xff
        LCALL   `??HalLcdWriteString::?relay`; Banked call to: HalLcdWriteString
//  316 #endif
//  317 
//  318   ZDO_RegisterForZDOMsg( GenericApp_TaskID, End_Device_Bind_rsp );
        ; Setup parameters for call to function ZDO_RegisterForZDOMsg
        MOV     R2,#0x20
        MOV     R3,#-0x80
        MOV     DPTR,#GenericApp_TaskID
        MOVX    A,@DPTR
        MOV     R1,A
        LCALL   `??ZDO_RegisterForZDOMsg::?relay`; Banked call to: ZDO_RegisterForZDOMsg
//  319   ZDO_RegisterForZDOMsg( GenericApp_TaskID, Match_Desc_rsp );
        ; Setup parameters for call to function ZDO_RegisterForZDOMsg
        MOV     R2,#0x6
        MOV     R3,#-0x80
        MOV     DPTR,#GenericApp_TaskID
        MOVX    A,@DPTR
        MOV     R1,A
        LCALL   `??ZDO_RegisterForZDOMsg::?relay`; Banked call to: ZDO_RegisterForZDOMsg
//  320 
//  321 #if defined( IAR_ARMCM3_LM )
//  322   // Register this task with RTOS task initiator
//  323   RTOS_RegisterApp( task_id, GENERICAPP_RTOS_MSG_EVT );
//  324 #endif
//  325 /////////////////////////////////////////////////////////////////////////////////////////////////////////////////////  
//  326   //halInitDriver();
//  327     dllInit();
        ; Setup parameters for call to function dllInit
        LCALL   `??dllInit::?relay`  ; Banked call to: dllInit
//  328     lookUpInit();
        ; Setup parameters for call to function lookUpInit
        LCALL   `??lookUpInit::?relay`; Banked call to: lookUpInit
//  329    // circularInit(&cMain);
//  330     HalUARTOpen(HAL_UART_PORT_1, &uartConfig);
        ; Setup parameters for call to function HalUARTOpen
        MOV     R2,#uartConfig & 0xff
        MOV     R3,#(uartConfig >> 8) & 0xff
        MOV     R1,#0x1
        LCALL   `??HalUARTOpen::?relay`; Banked call to: HalUARTOpen
//  331     //HalUARTSuspend();
//  332      //halGPIOOutput(HW_PORT_D, 0x03, 0);
//  333 
//  334     /*circularPut(&cMain, 'T');
//  335     circularPut(&cMain, 'E');
//  336     circularPut(&cMain, 'S');
//  337     circularPut(&cMain, 'T');
//  338     */
//  339    // halUARTWrite(PC, &cMain, 0);
//  340   
//  341 ////////////////////////////////////////////////////////////////////////////////////////////  
//  342     
//  343   
//  344 }
        MOV     R7,#0x1
        LJMP    ?BANKED_LEAVE_XDATA
          CFI EndBlock cfiBlock0
//  345 /*********************************************************************
//  346  * @fn      GenericApp_EndPointList
//  347  *
//  348  * @brief   Get's short address of end device and put in the end device 
//  349             array
//  350  *
//  351  * @param   shAddr  - Short Address of connected End Device
//  352  * 
//  353  * @return  none
//  354  */
//  355 /*
//  356 static void GenericApp_EndPointList(uint16 shAddr)
//  357 {
//  358  
//  359   if(index > MAX_NUMBER_OF_ENDDEVICES)
//  360   {
//  361     HalLcdWriteString("Max number of end devices overflow.",0);
//  362   }
//  363   else
//  364   {
//  365     shortAddressOfEndDevice[index];
//  366     index++;
//  367   }
//  368   
//  369   
//  370 }
//  371 */
//  372 /*********************************************************************
//  373  * @fn      GenericApp_ProcessEvent
//  374  *
//  375  * @brief   Generic Application Task event processor.  This function
//  376  *          is called to process all events for the task.  Events
//  377  *          include timers, messages and any other user defined events.
//  378  *
//  379  * @param   task_id  - The OSAL assigned task ID.
//  380  * @param   events - events to process.  This is a bit map and can
//  381  *                   contain more than one event.
//  382  *
//  383  * @return  none
//  384  */

        RSEG BANKED_CODE:HUGECODE:NOROOT(0)
//  385 uint16 GenericApp_ProcessEvent( uint8 task_id, uint16 events )
GenericApp_ProcessEvent:
          CFI Block cfiBlock1 Using cfiCommon0
          CFI Function GenericApp_ProcessEvent
        CODE
//  386 {
        FUNCALL GenericApp_ProcessEvent, osal_msg_receive
        LOCFRAME ISTACK, 0, STACK
        LOCFRAME PSTACK, 0, STACK
        LOCFRAME XSTACK, 71, STACK
        LOCFRAME IOVERLAY, 0, STATIC
        LOCFRAME DOVERLAY, 0, STATIC
        ARGFRAME ISTACK, 0, STACK
        ARGFRAME PSTACK, 0, STACK
        ARGFRAME XSTACK, 71, STACK
        ARGFRAME IOVERLAY, 0, STATIC
        ARGFRAME DOVERLAY, 0, STATIC
        FUNCALL GenericApp_ProcessEvent, osal_set_event
        LOCFRAME ISTACK, 0, STACK
        LOCFRAME PSTACK, 0, STACK
        LOCFRAME XSTACK, 71, STACK
        LOCFRAME IOVERLAY, 0, STATIC
        LOCFRAME DOVERLAY, 0, STATIC
        ARGFRAME ISTACK, 0, STACK
        ARGFRAME PSTACK, 0, STACK
        ARGFRAME XSTACK, 71, STACK
        ARGFRAME IOVERLAY, 0, STATIC
        ARGFRAME DOVERLAY, 0, STATIC
        FUNCALL GenericApp_ProcessEvent, osal_msg_deallocate
        LOCFRAME ISTACK, 0, STACK
        LOCFRAME PSTACK, 0, STACK
        LOCFRAME XSTACK, 71, STACK
        LOCFRAME IOVERLAY, 0, STATIC
        LOCFRAME DOVERLAY, 0, STATIC
        ARGFRAME ISTACK, 0, STACK
        ARGFRAME PSTACK, 0, STACK
        ARGFRAME XSTACK, 71, STACK
        ARGFRAME IOVERLAY, 0, STATIC
        ARGFRAME DOVERLAY, 0, STATIC
        FUNCALL GenericApp_ProcessEvent, osal_msg_receive
        LOCFRAME ISTACK, 0, STACK
        LOCFRAME PSTACK, 0, STACK
        LOCFRAME XSTACK, 71, STACK
        LOCFRAME IOVERLAY, 0, STATIC
        LOCFRAME DOVERLAY, 0, STATIC
        ARGFRAME ISTACK, 0, STACK
        ARGFRAME PSTACK, 0, STACK
        ARGFRAME XSTACK, 71, STACK
        ARGFRAME IOVERLAY, 0, STATIC
        ARGFRAME DOVERLAY, 0, STATIC
        FUNCALL GenericApp_ProcessEvent, HalLcdWriteString
        LOCFRAME ISTACK, 0, STACK
        LOCFRAME PSTACK, 0, STACK
        LOCFRAME XSTACK, 71, STACK
        LOCFRAME IOVERLAY, 0, STATIC
        LOCFRAME DOVERLAY, 0, STATIC
        ARGFRAME ISTACK, 0, STACK
        ARGFRAME PSTACK, 0, STACK
        ARGFRAME XSTACK, 71, STACK
        ARGFRAME IOVERLAY, 0, STATIC
        ARGFRAME DOVERLAY, 0, STATIC
        FUNCALL GenericApp_ProcessEvent, ZDO_ParseEPListRsp
        LOCFRAME ISTACK, 0, STACK
        LOCFRAME PSTACK, 0, STACK
        LOCFRAME XSTACK, 71, STACK
        LOCFRAME IOVERLAY, 0, STATIC
        LOCFRAME DOVERLAY, 0, STATIC
        ARGFRAME ISTACK, 0, STACK
        ARGFRAME PSTACK, 0, STACK
        ARGFRAME XSTACK, 71, STACK
        ARGFRAME IOVERLAY, 0, STATIC
        ARGFRAME DOVERLAY, 0, STATIC
        FUNCALL GenericApp_ProcessEvent, HalLedSet
        LOCFRAME ISTACK, 0, STACK
        LOCFRAME PSTACK, 0, STACK
        LOCFRAME XSTACK, 71, STACK
        LOCFRAME IOVERLAY, 0, STATIC
        LOCFRAME DOVERLAY, 0, STATIC
        ARGFRAME ISTACK, 0, STACK
        ARGFRAME PSTACK, 0, STACK
        ARGFRAME XSTACK, 71, STACK
        ARGFRAME IOVERLAY, 0, STATIC
        ARGFRAME DOVERLAY, 0, STATIC
        FUNCALL GenericApp_ProcessEvent, osal_mem_free
        LOCFRAME ISTACK, 0, STACK
        LOCFRAME PSTACK, 0, STACK
        LOCFRAME XSTACK, 71, STACK
        LOCFRAME IOVERLAY, 0, STATIC
        LOCFRAME DOVERLAY, 0, STATIC
        ARGFRAME ISTACK, 0, STACK
        ARGFRAME PSTACK, 0, STACK
        ARGFRAME XSTACK, 71, STACK
        ARGFRAME IOVERLAY, 0, STATIC
        ARGFRAME DOVERLAY, 0, STATIC
        FUNCALL GenericApp_ProcessEvent, HalLedSet
        LOCFRAME ISTACK, 0, STACK
        LOCFRAME PSTACK, 0, STACK
        LOCFRAME XSTACK, 71, STACK
        LOCFRAME IOVERLAY, 0, STATIC
        LOCFRAME DOVERLAY, 0, STATIC
        ARGFRAME ISTACK, 0, STACK
        ARGFRAME PSTACK, 0, STACK
        ARGFRAME XSTACK, 71, STACK
        ARGFRAME IOVERLAY, 0, STATIC
        ARGFRAME DOVERLAY, 0, STATIC
        FUNCALL GenericApp_ProcessEvent, HalLedSet
        LOCFRAME ISTACK, 0, STACK
        LOCFRAME PSTACK, 0, STACK
        LOCFRAME XSTACK, 71, STACK
        LOCFRAME IOVERLAY, 0, STATIC
        LOCFRAME DOVERLAY, 0, STATIC
        ARGFRAME ISTACK, 0, STACK
        ARGFRAME PSTACK, 0, STACK
        ARGFRAME XSTACK, 71, STACK
        ARGFRAME IOVERLAY, 0, STATIC
        ARGFRAME DOVERLAY, 0, STATIC
        FUNCALL GenericApp_ProcessEvent, HalLedSet
        LOCFRAME ISTACK, 0, STACK
        LOCFRAME PSTACK, 0, STACK
        LOCFRAME XSTACK, 71, STACK
        LOCFRAME IOVERLAY, 0, STATIC
        LOCFRAME DOVERLAY, 0, STATIC
        ARGFRAME ISTACK, 0, STACK
        ARGFRAME PSTACK, 0, STACK
        ARGFRAME XSTACK, 71, STACK
        ARGFRAME IOVERLAY, 0, STATIC
        ARGFRAME DOVERLAY, 0, STATIC
        FUNCALL GenericApp_ProcessEvent, getIDFromPkt
        LOCFRAME ISTACK, 0, STACK
        LOCFRAME PSTACK, 0, STACK
        LOCFRAME XSTACK, 71, STACK
        LOCFRAME IOVERLAY, 0, STATIC
        LOCFRAME DOVERLAY, 0, STATIC
        ARGFRAME ISTACK, 0, STACK
        ARGFRAME PSTACK, 0, STACK
        ARGFRAME XSTACK, 71, STACK
        ARGFRAME IOVERLAY, 0, STATIC
        ARGFRAME DOVERLAY, 0, STATIC
        FUNCALL GenericApp_ProcessEvent, getDataFromPkt
        LOCFRAME ISTACK, 0, STACK
        LOCFRAME PSTACK, 0, STACK
        LOCFRAME XSTACK, 71, STACK
        LOCFRAME IOVERLAY, 0, STATIC
        LOCFRAME DOVERLAY, 0, STATIC
        ARGFRAME ISTACK, 0, STACK
        ARGFRAME PSTACK, 0, STACK
        ARGFRAME XSTACK, 71, STACK
        ARGFRAME IOVERLAY, 0, STATIC
        ARGFRAME DOVERLAY, 0, STATIC
        FUNCALL GenericApp_ProcessEvent, updateLookUpTable
        LOCFRAME ISTACK, 0, STACK
        LOCFRAME PSTACK, 0, STACK
        LOCFRAME XSTACK, 78, STACK
        LOCFRAME IOVERLAY, 0, STATIC
        LOCFRAME DOVERLAY, 0, STATIC
        ARGFRAME ISTACK, 0, STACK
        ARGFRAME PSTACK, 0, STACK
        ARGFRAME XSTACK, 78, STACK
        ARGFRAME IOVERLAY, 0, STATIC
        ARGFRAME DOVERLAY, 0, STATIC
        FUNCALL GenericApp_ProcessEvent, osal_start_timerEx
        LOCFRAME ISTACK, 0, STACK
        LOCFRAME PSTACK, 0, STACK
        LOCFRAME XSTACK, 75, STACK
        LOCFRAME IOVERLAY, 0, STATIC
        LOCFRAME DOVERLAY, 0, STATIC
        ARGFRAME ISTACK, 0, STACK
        ARGFRAME PSTACK, 0, STACK
        ARGFRAME XSTACK, 75, STACK
        ARGFRAME IOVERLAY, 0, STATIC
        ARGFRAME DOVERLAY, 0, STATIC
        FUNCALL GenericApp_ProcessEvent, HalUARTRead
        LOCFRAME ISTACK, 0, STACK
        LOCFRAME PSTACK, 0, STACK
        LOCFRAME XSTACK, 71, STACK
        LOCFRAME IOVERLAY, 0, STATIC
        LOCFRAME DOVERLAY, 0, STATIC
        ARGFRAME ISTACK, 0, STACK
        ARGFRAME PSTACK, 0, STACK
        ARGFRAME XSTACK, 71, STACK
        ARGFRAME IOVERLAY, 0, STATIC
        ARGFRAME DOVERLAY, 0, STATIC
        FUNCALL GenericApp_ProcessEvent, processFrame
        LOCFRAME ISTACK, 0, STACK
        LOCFRAME PSTACK, 0, STACK
        LOCFRAME XSTACK, 71, STACK
        LOCFRAME IOVERLAY, 0, STATIC
        LOCFRAME DOVERLAY, 0, STATIC
        ARGFRAME ISTACK, 0, STACK
        ARGFRAME PSTACK, 0, STACK
        ARGFRAME XSTACK, 71, STACK
        ARGFRAME IOVERLAY, 0, STATIC
        ARGFRAME DOVERLAY, 0, STATIC
        FUNCALL GenericApp_ProcessEvent, getCmd
        LOCFRAME ISTACK, 0, STACK
        LOCFRAME PSTACK, 0, STACK
        LOCFRAME XSTACK, 71, STACK
        LOCFRAME IOVERLAY, 0, STATIC
        LOCFRAME DOVERLAY, 0, STATIC
        ARGFRAME ISTACK, 0, STACK
        ARGFRAME PSTACK, 0, STACK
        ARGFRAME XSTACK, 71, STACK
        ARGFRAME IOVERLAY, 0, STATIC
        ARGFRAME DOVERLAY, 0, STATIC
        FUNCALL GenericApp_ProcessEvent, _itoa
        LOCFRAME ISTACK, 0, STACK
        LOCFRAME PSTACK, 0, STACK
        LOCFRAME XSTACK, 71, STACK
        LOCFRAME IOVERLAY, 0, STATIC
        LOCFRAME DOVERLAY, 0, STATIC
        ARGFRAME ISTACK, 0, STACK
        ARGFRAME PSTACK, 0, STACK
        ARGFRAME XSTACK, 71, STACK
        ARGFRAME IOVERLAY, 0, STATIC
        ARGFRAME DOVERLAY, 0, STATIC
        FUNCALL GenericApp_ProcessEvent, _itoa
        LOCFRAME ISTACK, 0, STACK
        LOCFRAME PSTACK, 0, STACK
        LOCFRAME XSTACK, 71, STACK
        LOCFRAME IOVERLAY, 0, STATIC
        LOCFRAME DOVERLAY, 0, STATIC
        ARGFRAME ISTACK, 0, STACK
        ARGFRAME PSTACK, 0, STACK
        ARGFRAME XSTACK, 71, STACK
        ARGFRAME IOVERLAY, 0, STATIC
        ARGFRAME DOVERLAY, 0, STATIC
        FUNCALL GenericApp_ProcessEvent, getSignalAddress
        LOCFRAME ISTACK, 0, STACK
        LOCFRAME PSTACK, 0, STACK
        LOCFRAME XSTACK, 71, STACK
        LOCFRAME IOVERLAY, 0, STATIC
        LOCFRAME DOVERLAY, 0, STATIC
        ARGFRAME ISTACK, 0, STACK
        ARGFRAME PSTACK, 0, STACK
        ARGFRAME XSTACK, 71, STACK
        ARGFRAME IOVERLAY, 0, STATIC
        ARGFRAME DOVERLAY, 0, STATIC
        FUNCALL GenericApp_ProcessEvent, HalUARTWrite
        LOCFRAME ISTACK, 0, STACK
        LOCFRAME PSTACK, 0, STACK
        LOCFRAME XSTACK, 71, STACK
        LOCFRAME IOVERLAY, 0, STATIC
        LOCFRAME DOVERLAY, 0, STATIC
        ARGFRAME ISTACK, 0, STACK
        ARGFRAME PSTACK, 0, STACK
        ARGFRAME XSTACK, 71, STACK
        ARGFRAME IOVERLAY, 0, STATIC
        ARGFRAME DOVERLAY, 0, STATIC
        FUNCALL GenericApp_ProcessEvent, HalUARTWrite
        LOCFRAME ISTACK, 0, STACK
        LOCFRAME PSTACK, 0, STACK
        LOCFRAME XSTACK, 71, STACK
        LOCFRAME IOVERLAY, 0, STATIC
        LOCFRAME DOVERLAY, 0, STATIC
        ARGFRAME ISTACK, 0, STACK
        ARGFRAME PSTACK, 0, STACK
        ARGFRAME XSTACK, 71, STACK
        ARGFRAME IOVERLAY, 0, STATIC
        ARGFRAME DOVERLAY, 0, STATIC
        FUNCALL GenericApp_ProcessEvent, getSignalAddress
        LOCFRAME ISTACK, 0, STACK
        LOCFRAME PSTACK, 0, STACK
        LOCFRAME XSTACK, 71, STACK
        LOCFRAME IOVERLAY, 0, STATIC
        LOCFRAME DOVERLAY, 0, STATIC
        ARGFRAME ISTACK, 0, STACK
        ARGFRAME PSTACK, 0, STACK
        ARGFRAME XSTACK, 71, STACK
        ARGFRAME IOVERLAY, 0, STATIC
        ARGFRAME DOVERLAY, 0, STATIC
        FUNCALL GenericApp_ProcessEvent, osal_strlen
        LOCFRAME ISTACK, 0, STACK
        LOCFRAME PSTACK, 0, STACK
        LOCFRAME XSTACK, 71, STACK
        LOCFRAME IOVERLAY, 0, STATIC
        LOCFRAME DOVERLAY, 0, STATIC
        ARGFRAME ISTACK, 0, STACK
        ARGFRAME PSTACK, 0, STACK
        ARGFRAME XSTACK, 71, STACK
        ARGFRAME IOVERLAY, 0, STATIC
        ARGFRAME DOVERLAY, 0, STATIC
        FUNCALL GenericApp_ProcessEvent, AF_DataRequest
        LOCFRAME ISTACK, 0, STACK
        LOCFRAME PSTACK, 0, STACK
        LOCFRAME XSTACK, 80, STACK
        LOCFRAME IOVERLAY, 0, STATIC
        LOCFRAME DOVERLAY, 0, STATIC
        ARGFRAME ISTACK, 0, STACK
        ARGFRAME PSTACK, 0, STACK
        ARGFRAME XSTACK, 80, STACK
        ARGFRAME IOVERLAY, 0, STATIC
        ARGFRAME DOVERLAY, 0, STATIC
        FUNCALL GenericApp_ProcessEvent, HalUARTWrite
        LOCFRAME ISTACK, 0, STACK
        LOCFRAME PSTACK, 0, STACK
        LOCFRAME XSTACK, 71, STACK
        LOCFRAME IOVERLAY, 0, STATIC
        LOCFRAME DOVERLAY, 0, STATIC
        ARGFRAME ISTACK, 0, STACK
        ARGFRAME PSTACK, 0, STACK
        ARGFRAME XSTACK, 71, STACK
        ARGFRAME IOVERLAY, 0, STATIC
        ARGFRAME DOVERLAY, 0, STATIC
        FUNCALL GenericApp_ProcessEvent, HalUARTWrite
        LOCFRAME ISTACK, 0, STACK
        LOCFRAME PSTACK, 0, STACK
        LOCFRAME XSTACK, 71, STACK
        LOCFRAME IOVERLAY, 0, STATIC
        LOCFRAME DOVERLAY, 0, STATIC
        ARGFRAME ISTACK, 0, STACK
        ARGFRAME PSTACK, 0, STACK
        ARGFRAME XSTACK, 71, STACK
        ARGFRAME IOVERLAY, 0, STATIC
        ARGFRAME DOVERLAY, 0, STATIC
        FUNCALL GenericApp_ProcessEvent, ZDP_EndDeviceBindReq
        LOCFRAME ISTACK, 0, STACK
        LOCFRAME PSTACK, 0, STACK
        LOCFRAME XSTACK, 80, STACK
        LOCFRAME IOVERLAY, 0, STATIC
        LOCFRAME DOVERLAY, 0, STATIC
        ARGFRAME ISTACK, 0, STACK
        ARGFRAME PSTACK, 0, STACK
        ARGFRAME XSTACK, 80, STACK
        ARGFRAME IOVERLAY, 0, STATIC
        ARGFRAME DOVERLAY, 0, STATIC
        FUNCALL GenericApp_ProcessEvent, osal_set_event
        LOCFRAME ISTACK, 0, STACK
        LOCFRAME PSTACK, 0, STACK
        LOCFRAME XSTACK, 71, STACK
        LOCFRAME IOVERLAY, 0, STATIC
        LOCFRAME DOVERLAY, 0, STATIC
        ARGFRAME ISTACK, 0, STACK
        ARGFRAME PSTACK, 0, STACK
        ARGFRAME XSTACK, 71, STACK
        ARGFRAME IOVERLAY, 0, STATIC
        ARGFRAME DOVERLAY, 0, STATIC
        FUNCALL GenericApp_ProcessEvent, sendDataToPC
        LOCFRAME ISTACK, 0, STACK
        LOCFRAME PSTACK, 0, STACK
        LOCFRAME XSTACK, 71, STACK
        LOCFRAME IOVERLAY, 0, STATIC
        LOCFRAME DOVERLAY, 0, STATIC
        ARGFRAME ISTACK, 0, STACK
        ARGFRAME PSTACK, 0, STACK
        ARGFRAME XSTACK, 71, STACK
        ARGFRAME IOVERLAY, 0, STATIC
        ARGFRAME DOVERLAY, 0, STATIC
        FUNCALL GenericApp_ProcessEvent, osal_start_timerEx
        LOCFRAME ISTACK, 0, STACK
        LOCFRAME PSTACK, 0, STACK
        LOCFRAME XSTACK, 75, STACK
        LOCFRAME IOVERLAY, 0, STATIC
        LOCFRAME DOVERLAY, 0, STATIC
        ARGFRAME ISTACK, 0, STACK
        ARGFRAME PSTACK, 0, STACK
        ARGFRAME XSTACK, 75, STACK
        ARGFRAME IOVERLAY, 0, STATIC
        ARGFRAME DOVERLAY, 0, STATIC
        REQUIRE ?V0
        REQUIRE ?V1
        REQUIRE ?V2
        REQUIRE ?V3
        REQUIRE ?V4
        REQUIRE ?V5
        REQUIRE ?V6
        REQUIRE ?V7
        MOV     A,#-0x10
        LCALL   ?BANKED_ENTER_XDATA
          CFI DPH0 load(1, XDATA, add(CFA_XSP16, literal(-1)))
          CFI DPL0 load(1, XDATA, add(CFA_XSP16, literal(-2)))
          CFI ?BRET_EXT load(1, XDATA, add(CFA_XSP16, literal(-3)))
          CFI ?RET_HIGH load(1, XDATA, add(CFA_XSP16, literal(-4)))
          CFI ?RET_LOW load(1, XDATA, add(CFA_XSP16, literal(-5)))
          CFI R7 load(1, XDATA, add(CFA_XSP16, literal(-6)))
          CFI V7 load(1, XDATA, add(CFA_XSP16, literal(-7)))
          CFI V6 load(1, XDATA, add(CFA_XSP16, literal(-8)))
          CFI V5 load(1, XDATA, add(CFA_XSP16, literal(-9)))
          CFI V4 load(1, XDATA, add(CFA_XSP16, literal(-10)))
          CFI V3 load(1, XDATA, add(CFA_XSP16, literal(-11)))
          CFI V2 load(1, XDATA, add(CFA_XSP16, literal(-12)))
          CFI V1 load(1, XDATA, add(CFA_XSP16, literal(-13)))
          CFI V0 load(1, XDATA, add(CFA_XSP16, literal(-14)))
          CFI VB load(1, XDATA, add(CFA_XSP16, literal(-15)))
          CFI R6 load(1, XDATA, add(CFA_XSP16, literal(-16)))
          CFI CFA_SP SP+0
          CFI CFA_XSP16 add(XSP16, 16)
        ; Saved register size: 16
        ; Auto size: 55
        MOV     A,#-0x37
        LCALL   ?ALLOC_XSTACK8
          CFI CFA_XSP16 add(XSP16, 71)
        MOV     A,R2
        MOV     R6,A
        MOV     A,R3
        MOV     R7,A
//  387   afIncomingMSGPacket_t *MSGpkt;
//  388   afDataConfirm_t *afDataConfirm;
//  389   zAddrType_t dstAddr;
//  390 
//  391     //uint8 flag = 0;
//  392     //uint8 i;
//  393 
//  394 
//  395   // Data Confirmation message fields
//  396   byte sentEP;
//  397   ZStatus_t sentStatus;
//  398   byte sentTransID;       // This should match the value sent
//  399   (void)task_id;  // Intentionally unreferenced parameter
//  400 
//  401   if ( events & SYS_EVENT_MSG )
        ANL     A,#0x80
        JNZ     $+5
        LJMP    ??GenericApp_ProcessEvent_0 & 0xFFFF
//  402   {
//  403     MSGpkt = (afIncomingMSGPacket_t *)osal_msg_receive( GenericApp_TaskID );
        ; Setup parameters for call to function osal_msg_receive
        SJMP    ??GenericApp_ProcessEvent_1
//  404     
//  405    
//  406     while ( MSGpkt )
//  407     {
//  408       switch ( MSGpkt->hdr.event )
//  409       {
//  410         case ZDO_CB_MSG:
//  411           
//  412           GenericApp_ProcessZDOMsgs( (zdoIncomingMsg_t *)MSGpkt );
//  413           
//  414           break;
//  415 
//  416         case KEY_CHANGE:                                                        /////////////////////////////////////////////// case KEY_CHANGE: prazno ????????????????????????????
//  417 
//  418           break;
//  419 
//  420         case AF_DATA_CONFIRM_CMD:
//  421           // This message is received as a confirmation of a data packet sent.
//  422           // The status is of ZStatus_t type [defined in ZComDef.h]
//  423           // The message fields are defined in AF.h
//  424          
//  425           afDataConfirm = (afDataConfirm_t *)MSGpkt;
//  426 
//  427           sentEP = afDataConfirm->endpoint;
//  428           (void)sentEP;  // This info not used now
//  429           sentTransID = afDataConfirm->transID;
//  430           (void)sentTransID;  // This info not used now
//  431 
//  432           sentStatus = afDataConfirm->hdr.status;
//  433           // Action taken when confirmation is received.
//  434           if ( sentStatus != ZSuccess )
//  435           {
//  436             // The data wasn't delivered -- Do something
//  437           }
//  438           break;
//  439 
//  440         case AF_INCOMING_MSG_CMD:
//  441 ////////////////////////////////////////////////////////////////////////////////////////////////////////////////////          
//  442 
//  443           
//  444          GenericApp_MessageMSGCB( MSGpkt );
//  445  ////////////////////////////////////////////////////////////////////////////////////////////////////////////////////        
//  446           break;
//  447 
//  448         case ZDO_STATE_CHANGE:
//  449            
//  450           GenericApp_NwkState = (devStates_t)(MSGpkt->hdr.status);
//  451           if ( (GenericApp_NwkState == DEV_ZB_COORD) ||
//  452                (GenericApp_NwkState == DEV_ROUTER) ||
//  453                (GenericApp_NwkState == DEV_END_DEVICE) )
//  454           {
//  455             
//  456            
//  457             // Start sending "the" message in a regular interval.
//  458             osal_start_timerEx( GenericApp_TaskID,
//  459                                 GENERICAPP_SEND_MSG_EVT,
//  460                                 txMsgDelay );
//  461           }
//  462                       
//  463           break;
//  464 
//  465         default:
//  466            
//  467           
//  468             osal_set_event(GenericApp_TaskID,GENERICAPP_SEND_MSG_EVT);
??GenericApp_ProcessEvent_2:
        ; Setup parameters for call to function osal_set_event
        MOV     R2,#0x1
        MOV     R3,#0x0
        MOV     DPTR,#GenericApp_TaskID
        MOVX    A,@DPTR
        MOV     R1,A
        LCALL   `??osal_set_event::?relay`; Banked call to: osal_set_event
//  469            break;
//  470       }
//  471 
//  472       // Release the memory
//  473       osal_msg_deallocate( (uint8 *)MSGpkt );
??GenericApp_ProcessEvent_3:
        ; Setup parameters for call to function osal_msg_deallocate
        MOV     R2,?V0
        MOV     R3,?V1
        LCALL   `??osal_msg_deallocate::?relay`; Banked call to: osal_msg_deallocate
//  474 
//  475       // Next
//  476       MSGpkt = (afIncomingMSGPacket_t *)osal_msg_receive( GenericApp_TaskID );
        ; Setup parameters for call to function osal_msg_receive
??GenericApp_ProcessEvent_1:
        MOV     DPTR,#GenericApp_TaskID
        MOVX    A,@DPTR
        MOV     R1,A
        LCALL   `??osal_msg_receive::?relay`; Banked call to: osal_msg_receive
        MOV     ?V0,R2
        MOV     ?V1,R3
        MOV     A,?V0
        ORL     A,?V1
        JNZ     $+5
        LJMP    ??GenericApp_ProcessEvent_4 & 0xFFFF
        MOV     DPL,?V0
        MOV     DPH,?V1
        MOVX    A,@DPTR
        ADD     A,#-0x1a
        JNZ     $+5
        LJMP    ??GenericApp_ProcessEvent_5 & 0xFFFF
        ADD     A,#0x5a
        JZ      ??GenericApp_ProcessEvent_3
        ADD     A,#-0x11
        JNZ     $+5
        LJMP    ??GenericApp_ProcessEvent_6 & 0xFFFF
        ADD     A,#-0x2
        JZ      ??GenericApp_ProcessEvent_7
        ADD     A,#-0x2a
        JZ      ??GenericApp_ProcessEvent_3
        SJMP    ??GenericApp_ProcessEvent_2
??GenericApp_ProcessEvent_7:
        MOV     A,?V0
        ADD     A,#0xc
        MOV     DPL,A
        CLR     A
        ADDC    A,?V1
        MOV     DPH,A
        MOVX    A,@DPTR
        MOV     ?V2,A
        INC     DPTR
        MOVX    A,@DPTR
        MOV     ?V3,A
        MOV     R0,#?V2
        LCALL   ?US_SWITCH_SPARSE
`?<Jumptable for GenericApp_ProcessEvent>_0`:
        DATA
        DATA16
        DATA
        DATA16
        DATA
        DATA16
        DW        0
        DATA
        DATA16
        DATA
        DATA16
        DATA
        DATA16
        DW        2
        DATA
        DATA16
        DATA
        DATA16
        DATA
        DATA16
        DW        32774
        DATA
        DATA16
        DATA
        DATA16
        DATA
        DATA16
        DW        ??GenericApp_ProcessEvent_8
        DATA
        DATA16
        DATA
        DATA16
        DATA
        DATA16
        DW        32800
        DATA
        DATA16
        DATA
        DATA16
        DATA
        DATA16
        DW        ??GenericApp_ProcessEvent_9
        DATA
        DATA16
        DATA
        DATA16
        DW        ??GenericApp_ProcessEvent_3
        CODE
??GenericApp_ProcessEvent_8:
        ; Setup parameters for call to function HalLcdWriteString
        MOV     R1,#0x0
        MOV     R2,#`?<Constant "End Device Match Desc">` & 0xff
        MOV     R3,#(`?<Constant "End Device Match Desc">` >> 8) & 0xff
        LCALL   `??HalLcdWriteString::?relay`; Banked call to: HalLcdWriteString
        ; Setup parameters for call to function ZDO_ParseEPListRsp
        MOV     R2,?V0
        MOV     R3,?V1
        LCALL   `??ZDO_ParseEPListRsp::?relay`; Banked call to: ZDO_ParseEPListRsp
        MOV     ?V2,R2
        MOV     ?V3,R3
        MOV     A,R2
        ORL     A,?V3
        JZ      ??GenericApp_ProcessEvent_3
        MOV     DPL,R2
        MOV     DPH,R3
        MOVX    A,@DPTR
        JNZ     ??GenericApp_ProcessEvent_10
        INC     DPTR
        INC     DPTR
        INC     DPTR
        MOVX    A,@DPTR
        JZ      ??GenericApp_ProcessEvent_10
        MOV     DPTR,#GenericApp_DstAddr + 8
        MOV     A,#0x2
        MOVX    @DPTR,A
        MOV     DPL,R2
        MOV     DPH,R3
        INC     DPTR
        LCALL   ??Subroutine4_0 & 0xFFFF
??CrossCallReturnLabel_7:
        MOV     DPTR,#GenericApp_DstAddr
        MOV     A,R0
        MOVX    @DPTR,A
        INC     DPTR
        MOV     A,R1
        MOVX    @DPTR,A
        MOV     DPL,R2
        MOV     DPH,R3
        INC     DPTR
        INC     DPTR
        INC     DPTR
        INC     DPTR
        MOVX    A,@DPTR
        MOV     DPTR,#GenericApp_DstAddr + 9
        MOVX    @DPTR,A
        ; Setup parameters for call to function HalLedSet
        MOV     R2,#0x1
        MOV     R1,#0x8
        LCALL   `??HalLedSet::?relay`; Banked call to: HalLedSet
??GenericApp_ProcessEvent_10:
        ; Setup parameters for call to function osal_mem_free
        MOV     R2,?V2
        MOV     R3,?V3
        LCALL   `??osal_mem_free::?relay`; Banked call to: osal_mem_free
        LJMP    ??GenericApp_ProcessEvent_3 & 0xFFFF
??GenericApp_ProcessEvent_9:
        MOV     A,?V0
        ADD     A,#0x13
        MOV     DPL,A
        CLR     A
        ADDC    A,?V1
        MOV     DPH,A
        MOVX    A,@DPTR
        MOV     R0,A
        INC     DPTR
        MOVX    A,@DPTR
        MOV     DPH,A
        MOV     DPL,R0
        MOVX    A,@DPTR
        JNZ     ??GenericApp_ProcessEvent_11
        ; Setup parameters for call to function HalLedSet
        MOV     R2,#0x1
??GenericApp_ProcessEvent_12:
        MOV     R1,#0x8
        LCALL   `??HalLedSet::?relay`; Banked call to: HalLedSet
        LJMP    ??GenericApp_ProcessEvent_3 & 0xFFFF
??GenericApp_ProcessEvent_11:
        ; Setup parameters for call to function HalLedSet
        MOV     R2,#0x4
        SJMP    ??GenericApp_ProcessEvent_12
??GenericApp_ProcessEvent_5:
        INC     DPTR
        INC     DPTR
        INC     DPTR
        INC     DPTR
        MOVX    A,@DPTR
        XRL     A,#0x1
        JNZ     ??GenericApp_ProcessEvent_13
        INC     DPTR
        MOVX    A,@DPTR
??GenericApp_ProcessEvent_13:
        JZ      $+5
        LJMP    ??GenericApp_ProcessEvent_3 & 0xFFFF
        MOV     DPTR,#rxMsgCount
        MOVX    A,@DPTR
        ADD     A,#0x1
        MOVX    @DPTR,A
        INC     DPTR
        MOVX    A,@DPTR
        ADDC    A,#0x0
        MOVX    @DPTR,A
        ; Setup parameters for call to function HalLedSet
        MOV     R2,#0x2
        MOV     R1,#0x8
        LCALL   `??HalLedSet::?relay`; Banked call to: HalLedSet
        MOV     A,?V0
        ADD     A,#0x1f
        MOV     ?V2,A
        CLR     A
        ADDC    A,?V1
        MOV     ?V3,A
        ; Setup parameters for call to function getIDFromPkt
        MOV     R2,?V2
        MOV     R3,A
        LCALL   `??getIDFromPkt::?relay`; Banked call to: getIDFromPkt
        MOV     A,#0xe
        LCALL   ?XSTACK_DISP0_8
        MOV     A,R2
        MOVX    @DPTR,A
        INC     DPTR
        MOV     A,R3
        MOVX    @DPTR,A
        ; Setup parameters for call to function getDataFromPkt
        MOV     R2,?V2
        MOV     R3,?V3
        LCALL   `??getDataFromPkt::?relay`; Banked call to: getDataFromPkt
        MOV     A,R2
        MOV     R0,A
        MOV     A,R3
        MOV     R1,A
        MOV     A,R4
        MOV     R2,A
        MOV     A,R5
        MOV     R3,A
        MOV     A,#0x11
        LCALL   ?XSTACK_DISP0_8
        LCALL   ?XSTORE_R0123
        ; Setup parameters for call to function updateLookUpTable
        MOV     A,#0xe
        LCALL   ?XSTACK_DISP0_8
        MOV     A,#0x7
        LCALL   ?PUSH_XSTACK8_X
          CFI CFA_XSP16 add(XSP16, 78)
        MOV     A,?V0
        ADD     A,#0x24
        MOV     DPL,A
        CLR     A
        ADDC    A,?V1
        MOV     DPH,A
        LCALL   ??Subroutine3_0 & 0xFFFF
??CrossCallReturnLabel_3:
        LCALL   `??updateLookUpTable::?relay`; Banked call to: updateLookUpTable
        MOV     A,#0x7
        LCALL   ?DEALLOC_XSTACK8
          CFI CFA_XSP16 add(XSP16, 71)
        LJMP    ??GenericApp_ProcessEvent_3 & 0xFFFF
??GenericApp_ProcessEvent_6:
        INC     DPTR
        MOVX    A,@DPTR
        MOV     DPTR,#GenericApp_NwkState
        MOVX    @DPTR,A
        XRL     A,#0x9
        JZ      ??GenericApp_ProcessEvent_14
        MOVX    A,@DPTR
        XRL     A,#0x7
        JZ      ??GenericApp_ProcessEvent_14
        MOVX    A,@DPTR
        XRL     A,#0x6
        JZ      $+5
        LJMP    ??GenericApp_ProcessEvent_3 & 0xFFFF
??GenericApp_ProcessEvent_14:
        ; Setup parameters for call to function osal_start_timerEx
        MOV     DPTR,#txMsgDelay
        LCALL   ?PUSH_XSTACK8_X_FOUR
          CFI CFA_XSP16 add(XSP16, 75)
        MOV     R2,#0x1
        MOV     R3,#0x0
        MOV     DPTR,#GenericApp_TaskID
        MOVX    A,@DPTR
        MOV     R1,A
        LCALL   `??osal_start_timerEx::?relay`; Banked call to: osal_start_timerEx
        MOV     A,#0x4
        LCALL   ?DEALLOC_XSTACK8
          CFI CFA_XSP16 add(XSP16, 71)
        LJMP    ??GenericApp_ProcessEvent_3 & 0xFFFF
//  477         
//  478     }
//  479 
//  480     // return unprocessed events
//  481     return (events ^ SYS_EVENT_MSG);
??GenericApp_ProcessEvent_4:
        MOV     A,R6
        MOV     R2,A
        MOV     A,R7
        XRL     A,#0x80
        LJMP    ??GenericApp_ProcessEvent_15 & 0xFFFF
//  482   }
//  483 
//  484   // Send a message out - This event is generated by a timer
//  485   //  (setup in GenericApp_Init()).
//  486   
//  487  /////////////////////////////////////////////////////////////////////////////////////////////////////////////////// 
//  488   if ( events & RX_PROCCESS_EVENT )
??GenericApp_ProcessEvent_0:
        MOV     A,R7
        ANL     A,#0x1
        JNZ     $+5
        LJMP    ??GenericApp_ProcessEvent_16 & 0xFFFF
//  489   {
//  490     
//  491     uint8 i;
//  492     //char *id;
//  493     uint8 newLine = 0x0A;
        MOV     DPL,?XSP + 0
        MOV     DPH,?XSP + 1
        MOV     A,#0xa
        MOVX    @DPTR,A
//  494     uint16 ID;
//  495     uint32 Data; 
//  496     uint32 broj;
//  497     char id[3];
//  498     char dat[5];
//  499     char di[3];
//  500     char tad[5];
//  501     char theMessage[25];
//  502     //char doorOpened[] = {'S','E','N','D','\0'};
//  503 
//  504     HalUARTRead(HAL_UART_PORT_1, uartConfig.rx.pBuffer, 128);
        ; Setup parameters for call to function HalUARTRead
        MOV     R4,#-0x80
        MOV     R5,#0x0
        MOV     DPTR,#uartConfig + 12
        LCALL   ??Subroutine3_0 & 0xFFFF
??CrossCallReturnLabel_4:
        MOV     R1,#0x1
        LCALL   `??HalUARTRead::?relay`; Banked call to: HalUARTRead
//  505     
//  506     rxBuffer = uartConfig.rx.pBuffer;
        MOV     DPTR,#uartConfig + 12
        LCALL   ??Subroutine4_0 & 0xFFFF
??CrossCallReturnLabel_8:
        MOV     DPTR,#rxBuffer
        MOV     A,R0
        MOVX    @DPTR,A
        INC     DPTR
        MOV     A,R1
        MOVX    @DPTR,A
//  507     
//  508     ID = processFrame(rxBuffer);
        ; Setup parameters for call to function processFrame
        LCALL   ?Subroutine1 & 0xFFFF
??CrossCallReturnLabel_5:
        LCALL   `??processFrame::?relay`; Banked call to: processFrame
        MOV     ?V0,R2
        MOV     ?V1,R3
//  509     Data = getCmd(ID);
        ; Setup parameters for call to function getCmd
        LCALL   `??getCmd::?relay`   ; Banked call to: getCmd
        MOV     ?V4,R2
        MOV     ?V5,R3
//  510     
//  511     //itoa(ID, id, 10);
//  512     
//  513      //id = (char*)&ID;
//  514      //id[0]+=0x30;
//  515      //id[1]+=0x30;
//  516     
//  517      _itoa(ID, (uint8 *)id, 10);
        ; Setup parameters for call to function _itoa
        MOV     R1,#0xa
        MOV     A,#0x1
        LCALL   ?XSTACK_DISP102_8
        MOV     R2,?V0
        MOV     R3,?V1
        LCALL   `??_itoa::?relay`    ; Banked call to: _itoa
//  518      id[2] = '\0';
        MOV     A,#0x3
        LCALL   ?XSTACK_DISP0_8
        CLR     A
        MOVX    @DPTR,A
//  519      for(i = 0; i < 2; i++)
//  520      {
//  521        di[i] = id[1-i];
//  522      }
//  523      di[2] = '\0';
//  524      
//  525      
//  526      
//  527      _itoa(Data, (uint8 *)dat, 10);
        ; Setup parameters for call to function _itoa
        MOV     R1,#0xa
        MOV     A,#0x9
        LCALL   ?XSTACK_DISP102_8
        MOV     R2,?V4
        MOV     R3,?V5
        LCALL   `??_itoa::?relay`    ; Banked call to: _itoa
//  528      dat[4] = '\0';
        MOV     A,#0xd
        LCALL   ?XSTACK_DISP0_8
        CLR     A
        MOVX    @DPTR,A
//  529      for(i = 0; i < 4; i++)
        MOV     ?V2,#0x0
//  530      {
//  531        tad[i] = dat[3-i];
??GenericApp_ProcessEvent_17:
        MOV     R0,?V2
        CLR     C
        CLR     A
        SUBB    A,R0
        MOV     R2,A
        SUBB    A,0xE0 /* A   */
        MOV     R3,A
        MOV     A,#0x9
        LCALL   ?XSTACK_DISP0_8
        MOV     A,DPL
        ADD     A,R2
        MOV     DPL,A
        MOV     A,DPH
        ADDC    A,R3
        MOV     DPH,A
        INC     DPTR
        INC     DPTR
        INC     DPTR
        MOVX    A,@DPTR
        PUSH    A
          CFI CFA_SP SP+-1
        MOV     A,#0x4
        LCALL   ?XSTACK_DISP0_8
        LCALL   ?Subroutine2 & 0xFFFF
//  532      }
??CrossCallReturnLabel_0:
        POP     A
          CFI CFA_SP SP+0
        MOVX    @DPTR,A
        INC     ?V2
        MOV     A,?V2
        CLR     C
        SUBB    A,#0x4
        JC      ??GenericApp_ProcessEvent_17
//  533      tad[4] = '\0';
        MOV     A,#0x8
        LCALL   ?XSTACK_DISP0_8
        CLR     A
        MOVX    @DPTR,A
//  534    /*  
//  535      HalUARTWrite(HAL_UART_PORT_1, "----------Borislav  ID-------", 29);
//  536      HalUARTWrite(HAL_UART_PORT_1, &newLine, 1);
//  537      HalUARTWrite(HAL_UART_PORT_1, (uint8 *)di, 3);
//  538      HalUARTWrite(HAL_UART_PORT_1, &newLine, 1);
//  539      HalUARTWrite(HAL_UART_PORT_1, (uint8 *)tad, 5);
//  540      HalUARTWrite(HAL_UART_PORT_1, &newLine, 1);
//  541      HalUARTWrite(HAL_UART_PORT_1, "----------Borislav  ID-------", 29);
//  542      HalUARTWrite(HAL_UART_PORT_1, &newLine, 1);
//  543      */
//  544        
//  545   //   id = (char*)&Data;
//  546      //id = (char*)&broj;
//  547      /*id[0]+=0x30;
//  548      id[1]+=0x30;
//  549      id[2]+=0x30;
//  550      id[3]+=0x30;
//  551      id[4] = '\0';
//  552      HalUARTWrite(HAL_UART_PORT_1, "----------Borislav  DATA-----", 29);
//  553      HalUARTWrite(HAL_UART_PORT_1, &newLine, 1);
//  554      HalUARTWrite(HAL_UART_PORT_1, (uint8 *)id, 5);
//  555      HalUARTWrite(HAL_UART_PORT_1, &newLine, 1);
//  556      HalUARTWrite(HAL_UART_PORT_1, "----------Borislav  DATA-----", 29);
//  557      HalUARTWrite(HAL_UART_PORT_1, &newLine, 1);
//  558  */
//  559        
//  560      broj = getSignalAddress(ID);
        ; Setup parameters for call to function getSignalAddress
        MOV     R2,?V0
        MOV     R3,?V1
        LCALL   `??getSignalAddress::?relay`; Banked call to: getSignalAddress
        MOV     ?V4,R2
        MOV     ?V5,R3
//  561      i = 0;
        MOV     ?V2,#0x0
        SJMP    ??GenericApp_ProcessEvent_18
//  562      while(broj)
//  563      {
//  564       id[i] = (broj % 16) + '0';
??GenericApp_ProcessEvent_19:
        MOV     A,?V4
        ANL     A,#0xf
        ADD     A,#0x30
        PUSH    A
          CFI CFA_SP SP+-1
        MOV     R0,?V2
        MOV     A,#0x1
        LCALL   ?XSTACK_DISP0_8
        LCALL   ?Subroutine2 & 0xFFFF
??CrossCallReturnLabel_1:
        POP     A
          CFI CFA_SP SP+0
        MOVX    @DPTR,A
//  565       broj/=256;
        CLR     A
        XCH     A,?V5
        MOV     ?V4,A
//  566       i++;
        INC     ?V2
//  567      }
??GenericApp_ProcessEvent_18:
        MOV     A,?V4
        ORL     A,?V5
        JNZ     ??GenericApp_ProcessEvent_19
//  568      id[i] = '0';
        MOV     R0,?V2
        MOV     A,#0x1
        LCALL   ?XSTACK_DISP0_8
        LCALL   ?Subroutine2 & 0xFFFF
??CrossCallReturnLabel_2:
        MOV     A,#0x30
        MOVX    @DPTR,A
//  569        
//  570     //theMessage[0] = 'T';
//  571     //theMessage[1] = '2';
//  572     theMessage[0] = id[0];
        MOV     A,#0x1
        LCALL   ?XSTACK_DISP0_8
        MOVX    A,@DPTR
        PUSH    A
          CFI CFA_SP SP+-1
        MOV     A,#0x15
        LCALL   ?XSTACK_DISP0_8
        POP     A
          CFI CFA_SP SP+0
        MOVX    @DPTR,A
//  573     theMessage[1] = id[1];
        MOV     A,#0x2
        LCALL   ?XSTACK_DISP0_8
        MOVX    A,@DPTR
        PUSH    A
          CFI CFA_SP SP+-1
        MOV     A,#0x16
        LCALL   ?XSTACK_DISP0_8
        POP     A
          CFI CFA_SP SP+0
        MOVX    @DPTR,A
//  574     theMessage[2] = tad[0];
        MOV     A,#0x4
        LCALL   ?XSTACK_DISP0_8
        MOVX    A,@DPTR
        PUSH    A
          CFI CFA_SP SP+-1
        MOV     A,#0x17
        LCALL   ?XSTACK_DISP0_8
        POP     A
          CFI CFA_SP SP+0
        MOVX    @DPTR,A
//  575     theMessage[3] = tad[1];
        MOV     A,#0x5
        LCALL   ?XSTACK_DISP0_8
        MOVX    A,@DPTR
        PUSH    A
          CFI CFA_SP SP+-1
        MOV     A,#0x18
        LCALL   ?XSTACK_DISP0_8
        POP     A
          CFI CFA_SP SP+0
        MOVX    @DPTR,A
//  576     theMessage[4] = tad[2];
        MOV     A,#0x6
        LCALL   ?XSTACK_DISP0_8
        MOVX    A,@DPTR
        PUSH    A
          CFI CFA_SP SP+-1
        MOV     A,#0x19
        LCALL   ?XSTACK_DISP0_8
        POP     A
          CFI CFA_SP SP+0
        MOVX    @DPTR,A
//  577     theMessage[5] = tad[3]; 
        MOV     A,#0x7
        LCALL   ?XSTACK_DISP0_8
        MOVX    A,@DPTR
        PUSH    A
          CFI CFA_SP SP+-1
        MOV     A,#0x1a
        LCALL   ?XSTACK_DISP0_8
        POP     A
          CFI CFA_SP SP+0
        MOVX    @DPTR,A
//  578     theMessage[6] = '\0'; 
        MOV     A,#0x1b
        LCALL   ?XSTACK_DISP0_8
        CLR     A
        MOVX    @DPTR,A
//  579     
//  580     HalUARTWrite(HAL_UART_PORT_1, (uint8 *)theMessage, 7);
        ; Setup parameters for call to function HalUARTWrite
        MOV     R4,#0x7
        MOV     R5,A
        MOV     A,#0x15
        LCALL   ?XSTACK_DISP101_8
        MOV     R1,#0x1
        LCALL   `??HalUARTWrite::?relay`; Banked call to: HalUARTWrite
//  581     HalUARTWrite(HAL_UART_PORT_1, &newLine, 1);
        ; Setup parameters for call to function HalUARTWrite
        MOV     R4,#0x1
        MOV     R5,#0x0
        MOV     R2,?XSP + 0
        MOV     R3,?XSP + 1
        MOV     R1,#0x1
        LCALL   `??HalUARTWrite::?relay`; Banked call to: HalUARTWrite
//  582 
//  583      
//  584      for(i = 0; i < 20; i++)
        MOV     ?V2,#0x0
//  585   {
//  586     
//  587     if(getSignalAddress(ID) == lutData[i].devID)
??GenericApp_ProcessEvent_20:
        ; Setup parameters for call to function getSignalAddress
        MOV     R2,?V0
        MOV     R3,?V1
        LCALL   `??getSignalAddress::?relay`; Banked call to: getSignalAddress
        MOV     A,?V2
        MOV     B,#0xa
        MUL     AB
        MOV     R0,A
        MOV     R1,B
        MOV     A,#lutData & 0xff
        ADD     A,R0
        MOV     DPL,A
        MOV     A,#(lutData >> 8) & 0xff
        ADDC    A,R1
        MOV     DPH,A
        MOVX    A,@DPTR
        XRL     A,R2
        JNZ     ??GenericApp_ProcessEvent_21
        INC     DPTR
        MOVX    A,@DPTR
        XRL     A,R3
??GenericApp_ProcessEvent_21:
        JNZ     ??GenericApp_ProcessEvent_22
//  588     //if(0 != lutData[i].devID)
//  589     {
//  590       
//  591     GenericApp_DstAddress.addrMode = (afAddrMode_t)Addr16Bit;
        MOV     DPTR,#GenericApp_DstAddress + 8
        MOV     A,#0x2
        MOVX    @DPTR,A
//  592     GenericApp_DstAddress.endPoint = GENERICAPP_ENDPOINT;
        INC     DPTR
        MOV     A,#0xa
        MOVX    @DPTR,A
//  593     GenericApp_DstAddress.addr.shortAddr = lutData[i].devAddress;
        MOV     A,#(lutData + 2) & 0xff
        ADD     A,R0
        MOV     DPL,A
        MOV     A,#((lutData + 2) >> 8) & 0xff
        LCALL   ?Subroutine0 & 0xFFFF
??CrossCallReturnLabel_9:
        MOV     DPTR,#GenericApp_DstAddress
        MOV     A,R0
        MOVX    @DPTR,A
        INC     DPTR
        MOV     A,R1
        MOVX    @DPTR,A
//  594     
//  595     
//  596     
//  597     AF_DataRequest( &GenericApp_DstAddress, &GenericApp_epDesc,
//  598                        GENERICAPP_CLUSTERID,
//  599                       (byte)osal_strlen( theMessage ) + 1,
//  600                        //5,    
//  601                       (byte *)&theMessage,
//  602                        //(byte *)&doorOpened,
//  603                        &GenericApp_TransID,
//  604                        AF_DISCV_ROUTE, AF_DEFAULT_RADIUS );
        ; Setup parameters for call to function osal_strlen
        MOV     A,#0x15
        LCALL   ?XSTACK_DISP101_8
        LCALL   `??osal_strlen::?relay`; Banked call to: osal_strlen
        ; Setup parameters for call to function AF_DataRequest
        MOV     ?V3,#0x1e
        MOV     R0,#?V3
        LCALL   ?PUSH_XSTACK_I_ONE
          CFI CFA_XSP16 add(XSP16, 72)
        MOV     ?V4,#GenericApp_TransID & 0xff
        MOV     ?V5,#(GenericApp_TransID >> 8) & 0xff
        MOV     R0,#?V4
        LCALL   ?PUSH_XSTACK_I_TWO
          CFI CFA_XSP16 add(XSP16, 74)
        MOV     A,#0x18
        LCALL   ?XSTACK_DISP100_8
        MOV     ?V4,R0
        MOV     ?V5,R1
        MOV     R0,#?V4
        LCALL   ?PUSH_XSTACK_I_TWO
          CFI CFA_XSP16 add(XSP16, 76)
        MOV     A,R2
        ADD     A,#0x1
        MOV     ?V4,A
        CLR     A
        ADDC    A,#0x0
        MOV     ?V5,A
        MOV     R0,#?V4
        LCALL   ?PUSH_XSTACK_I_TWO
          CFI CFA_XSP16 add(XSP16, 78)
        MOV     ?V4,#0x1
        MOV     ?V5,#0x0
        MOV     R0,#?V4
        LCALL   ?PUSH_XSTACK_I_TWO
          CFI CFA_XSP16 add(XSP16, 80)
        MOV     R1,#0x0
        MOV     R4,#GenericApp_epDesc & 0xff
        MOV     R5,#(GenericApp_epDesc >> 8) & 0xff
        MOV     R2,#GenericApp_DstAddress & 0xff
        MOV     R3,#(GenericApp_DstAddress >> 8) & 0xff
        LCALL   `??AF_DataRequest::?relay`; Banked call to: AF_DataRequest
        MOV     A,#0x9
        LCALL   ?DEALLOC_XSTACK8
          CFI CFA_XSP16 add(XSP16, 71)
//  605 
//  606       }
//  607   }
??GenericApp_ProcessEvent_22:
        INC     ?V2
        MOV     A,?V2
        CLR     C
        SUBB    A,#0x14
        JNC     $+5
        LJMP    ??GenericApp_ProcessEvent_20 & 0xFFFF
//  608 
//  609     HalUARTWrite(HAL_UART_PORT_1, (uint8 *)rxBuffer, 29);
        ; Setup parameters for call to function HalUARTWrite
        MOV     R4,#0x1d
        MOV     R5,#0x0
        LCALL   ?Subroutine1 & 0xFFFF
??CrossCallReturnLabel_6:
        MOV     R1,#0x1
        LCALL   `??HalUARTWrite::?relay`; Banked call to: HalUARTWrite
//  610     HalUARTWrite(HAL_UART_PORT_1, &newLine, 1);
        ; Setup parameters for call to function HalUARTWrite
        MOV     R4,#0x1
        MOV     R5,#0x0
        MOV     R2,?XSP + 0
        MOV     R3,?XSP + 1
        MOV     R1,#0x1
        LCALL   `??HalUARTWrite::?relay`; Banked call to: HalUARTWrite
//  611     
//  612 /*
//  613    
//  614     theMessage[GenericApp_DstAddress.addr.shortAddr][0] = (char)((ID >> 8) & 0x00FF);
//  615     theMessage[GenericApp_DstAddress.addr.shortAddr][1] = (char)(ID & 0x00FF);
//  616     theMessage[GenericApp_DstAddress.addr.shortAddr][2] = (char)((Data >> 24) & 0x000000FF);
//  617     theMessage[GenericApp_DstAddress.addr.shortAddr][3] = (char)((Data >> 16) & 0x000000FF); 
//  618     theMessage[GenericApp_DstAddress.addr.shortAddr][4] = (char)((Data >> 8) & 0x000000FF);
//  619     theMessage[GenericApp_DstAddress.addr.shortAddr][5] = (char)(Data & 0x000000FF); 
//  620  
//  621     GenericApp_DstAddress.addrMode = (afAddrMode_t)Addr16Bit;
//  622     GenericApp_DstAddress.endPoint = GENERICAPP_ENDPOINT;
//  623     GenericApp_DstAddress.addr.shortAddr = lookForAddr(ID);
//  624     
//  625     if ( AF_DataRequest( &GenericApp_DstAddress, &GenericApp_epDesc,
//  626                            GENERICAPP_CLUSTERID,
//  627                            //(byte)osal_strlen( theMessage[GenericApp_DstAddress.addr.shortAddr] ) + 1,
//  628                            (byte)osal_strlen( doorOpened ) + 1,
//  629                            //(byte *)&theMessage[GenericApp_DstAddress.addr.shortAddr],
//  630                            (byte *)&doorOpened,
//  631                            &GenericApp_TransID,
//  632                            AF_DISCV_ROUTE, AF_DEFAULT_RADIUS ) == afStatus_SUCCESS )
//  633       
//  634       {
//  635         HalLedSet ( HAL_LED_4, HAL_LED_MODE_BLINK );  // Blink an LED
//  636       }
//  637 
//  638     */
//  639 }
//  640     
//  641   ///////////////////////////////////////////////////////////////////////////////////////////////////////////////////  
//  642     
//  643   if ( events & GENERICAPP_SEND_MSG_EVT )
??GenericApp_ProcessEvent_16:
        MOV     A,R6
        MOV     C,0xE0 /* A   */.0
        JC      $+5
        LJMP    ??GenericApp_ProcessEvent_23 & 0xFFFF
//  644   {
//  645     if(keyPressSW4)
        MOV     DPTR,#keyPressSW4
        MOVX    A,@DPTR
        JZ      ??GenericApp_ProcessEvent_24
//  646     {
//  647       
//  648       dstAddr.addrMode = Addr16Bit;
        MOV     A,#0x36
        LCALL   ?XSTACK_DISP0_8
        MOV     A,#0x2
        MOVX    @DPTR,A
//  649       dstAddr.addr.shortAddr = 0x0000;//NLME_GetShortAddr();//0x0000; // Coordinator
        MOV     A,#0x2e
        LCALL   ?XSTACK_DISP0_8
        CLR     A
        MOVX    @DPTR,A
        INC     DPTR
        MOVX    @DPTR,A
//  650       ZDP_EndDeviceBindReq( &dstAddr, 0x0000, //NLME_GetShortAddr(),
//  651                             GenericApp_epDesc.endPoint,
//  652                             GENERICAPP_PROFID,
//  653                             GENERICAPP_MAX_CLUSTERS, (cId_t *)GenericApp_ClusterList,
//  654                             GENERICAPP_MAX_CLUSTERS, (cId_t *)GenericApp_ClusterList,
//  655                             FALSE );
        MOV     ?V0,#GenericApp_ClusterList & 0xff
        MOV     ?V1,#(GenericApp_ClusterList >> 8) & 0xff
        ; Setup parameters for call to function ZDP_EndDeviceBindReq
        MOV     ?V2,A
        MOV     R0,#?V2
        LCALL   ?PUSH_XSTACK_I_ONE
          CFI CFA_XSP16 add(XSP16, 72)
        MOV     R0,#?V0
        LCALL   ?PUSH_XSTACK_I_TWO
          CFI CFA_XSP16 add(XSP16, 74)
        MOV     ?V2,#0x1
        MOV     R0,#?V2
        LCALL   ?PUSH_XSTACK_I_ONE
          CFI CFA_XSP16 add(XSP16, 75)
        MOV     R0,#?V0
        LCALL   ?PUSH_XSTACK_I_TWO
          CFI CFA_XSP16 add(XSP16, 77)
        MOV     ?V0,#0x1
        MOV     R0,#?V0
        LCALL   ?PUSH_XSTACK_I_ONE
          CFI CFA_XSP16 add(XSP16, 78)
        MOV     ?V0,#0x4
        MOV     ?V1,#0xf
        MOV     R0,#?V0
        LCALL   ?PUSH_XSTACK_I_TWO
          CFI CFA_XSP16 add(XSP16, 80)
        MOV     DPTR,#GenericApp_epDesc
        MOVX    A,@DPTR
        MOV     R1,A
        MOV     R4,#0x0
        MOV     R5,#0x0
        MOV     A,#0x37
        LCALL   ?XSTACK_DISP101_8
        LCALL   `??ZDP_EndDeviceBindReq::?relay`; Banked call to: ZDP_EndDeviceBindReq
        MOV     A,#0x9
        LCALL   ?DEALLOC_XSTACK8
          CFI CFA_XSP16 add(XSP16, 71)
//  656       
//  657       keyPressSW4 = 0;
        MOV     DPTR,#keyPressSW4
        CLR     A
        MOVX    @DPTR,A
//  658       
//  659       osal_set_event(GenericApp_TaskID,GENERICAPP_SEND_MSG_EVT);
        ; Setup parameters for call to function osal_set_event
        MOV     R2,#0x1
        MOV     R3,A
        MOV     DPTR,#GenericApp_TaskID
        MOVX    A,@DPTR
        MOV     R1,A
        LCALL   `??osal_set_event::?relay`; Banked call to: osal_set_event
        SJMP    ??GenericApp_ProcessEvent_25
//  660       
//  661     }
//  662     else
//  663     {
//  664 
//  665     // if((char)*buff!='\0') //zakomentarisao
//  666      {
//  667        
//  668        GenericApp_SendTheMessage();
??GenericApp_ProcessEvent_24:
        MOV     ?V0,#0x0
??GenericApp_ProcessEvent_26:
        MOV     A,?V0
        MOV     B,#0xa
        MUL     AB
        MOV     R0,A
        MOV     R2,B
        MOV     A,R2
        MOV     R1,A
        MOV     A,#lutData & 0xff
        ADD     A,R0
        MOV     DPL,A
        MOV     A,#(lutData >> 8) & 0xff
        LCALL   ?Subroutine0 & 0xFFFF
??CrossCallReturnLabel_10:
        MOV     A,R0
        ORL     A,R1
        JZ      ??GenericApp_ProcessEvent_27
        ; Setup parameters for call to function sendDataToPC
        MOV     A,?V0
        MOV     B,#0xa
        MUL     AB
        MOV     R0,A
        MOV     A,R2
        MOV     R1,A
        MOV     A,#lutData & 0xff
        ADD     A,R0
        MOV     R2,A
        MOV     A,#(lutData >> 8) & 0xff
        ADDC    A,R1
        MOV     R3,A
        LCALL   `??sendDataToPC::?relay`; Banked call to: sendDataToPC
??GenericApp_ProcessEvent_27:
        INC     ?V0
        MOV     A,?V0
        CLR     C
        SUBB    A,#0x14
        JC      ??GenericApp_ProcessEvent_26
//  669         //HalLcdWriteString("Sile before send",0);
//  670      }
//  671 
//  672      //Setup to send message again
//  673      osal_start_timerEx( GenericApp_TaskID,
//  674                          GENERICAPP_SEND_MSG_EVT,
//  675                          1000); //txMsgDelay );
        ; Setup parameters for call to function osal_start_timerEx
        MOV     DPTR,#__Constant_3e8
        LCALL   ?PUSH_XSTACK8_X_FOUR
          CFI CFA_XSP16 add(XSP16, 75)
        MOV     R2,#0x1
        MOV     R3,#0x0
        MOV     DPTR,#GenericApp_TaskID
        MOVX    A,@DPTR
        MOV     R1,A
        LCALL   `??osal_start_timerEx::?relay`; Banked call to: osal_start_timerEx
        MOV     A,#0x4
        LCALL   ?DEALLOC_XSTACK8
          CFI CFA_XSP16 add(XSP16, 71)
//  676     
//  677     }
//  678     // return unprocessed events
//  679     return (events ^ GENERICAPP_SEND_MSG_EVT);
??GenericApp_ProcessEvent_25:
        MOV     A,R6
        XRL     A,#0x1
        MOV     R2,A
        MOV     A,R7
??GenericApp_ProcessEvent_15:
        MOV     R3,A
        SJMP    ??GenericApp_ProcessEvent_28
//  680   }
//  681 
//  682 #if defined( IAR_ARMCM3_LM )
//  683   // Receive a message from the RTOS queue
//  684   if ( events & GENERICAPP_RTOS_MSG_EVT )
//  685   {
//  686     // Process message from RTOS queue
//  687     GenericApp_ProcessRtosMessage();
//  688 
//  689     // return unprocessed events
//  690     return (events ^ GENERICAPP_RTOS_MSG_EVT);
//  691   }
//  692 #endif
//  693 
//  694   // Discard unknown events
//  695   return 0;
??GenericApp_ProcessEvent_23:
        MOV     R2,#0x0
        MOV     R3,#0x0
??GenericApp_ProcessEvent_28:
        MOV     A,#0x37
        LCALL   ?DEALLOC_XSTACK8
          CFI CFA_XSP16 add(XSP16, 16)
        MOV     R7,#0x8
        LJMP    ?BANKED_LEAVE_XDATA
//  696 }
          CFI EndBlock cfiBlock1

        RSEG BANKED_CODE:HUGECODE:NOROOT(0)
?Subroutine2:
          CFI Block cfiCond2 Using cfiCommon0
          CFI Function GenericApp_ProcessEvent
          CFI Conditional ??CrossCallReturnLabel_0
          CFI R6 load(1, XDATA, add(CFA_XSP16, literal(-16)))
          CFI VB load(1, XDATA, add(CFA_XSP16, literal(-15)))
          CFI V0 load(1, XDATA, add(CFA_XSP16, literal(-14)))
          CFI V1 load(1, XDATA, add(CFA_XSP16, literal(-13)))
          CFI V2 load(1, XDATA, add(CFA_XSP16, literal(-12)))
          CFI V3 load(1, XDATA, add(CFA_XSP16, literal(-11)))
          CFI V4 load(1, XDATA, add(CFA_XSP16, literal(-10)))
          CFI V5 load(1, XDATA, add(CFA_XSP16, literal(-9)))
          CFI V6 load(1, XDATA, add(CFA_XSP16, literal(-8)))
          CFI V7 load(1, XDATA, add(CFA_XSP16, literal(-7)))
          CFI R7 load(1, XDATA, add(CFA_XSP16, literal(-6)))
          CFI ?RET_LOW load(1, XDATA, add(CFA_XSP16, literal(-5)))
          CFI ?RET_HIGH load(1, XDATA, add(CFA_XSP16, literal(-4)))
          CFI ?BRET_EXT load(1, XDATA, add(CFA_XSP16, literal(-3)))
          CFI DPL0 load(1, XDATA, add(CFA_XSP16, literal(-2)))
          CFI DPH0 load(1, XDATA, add(CFA_XSP16, literal(-1)))
          CFI CFA_XSP16 add(XSP16, 71)
          CFI Block cfiCond3 Using cfiCommon0
          CFI (cfiCond3) Function GenericApp_ProcessEvent
          CFI (cfiCond3) Conditional ??CrossCallReturnLabel_1
          CFI (cfiCond3) R6 load(1, XDATA, add(CFA_XSP16, literal(-16)))
          CFI (cfiCond3) VB load(1, XDATA, add(CFA_XSP16, literal(-15)))
          CFI (cfiCond3) V0 load(1, XDATA, add(CFA_XSP16, literal(-14)))
          CFI (cfiCond3) V1 load(1, XDATA, add(CFA_XSP16, literal(-13)))
          CFI (cfiCond3) V2 load(1, XDATA, add(CFA_XSP16, literal(-12)))
          CFI (cfiCond3) V3 load(1, XDATA, add(CFA_XSP16, literal(-11)))
          CFI (cfiCond3) V4 load(1, XDATA, add(CFA_XSP16, literal(-10)))
          CFI (cfiCond3) V5 load(1, XDATA, add(CFA_XSP16, literal(-9)))
          CFI (cfiCond3) V6 load(1, XDATA, add(CFA_XSP16, literal(-8)))
          CFI (cfiCond3) V7 load(1, XDATA, add(CFA_XSP16, literal(-7)))
          CFI (cfiCond3) R7 load(1, XDATA, add(CFA_XSP16, literal(-6)))
          CFI (cfiCond3) ?RET_LOW load(1, XDATA, add(CFA_XSP16, literal(-5)))
          CFI (cfiCond3) ?RET_HIGH load(1, XDATA, add(CFA_XSP16, literal(-4)))
          CFI (cfiCond3) ?BRET_EXT load(1, XDATA, add(CFA_XSP16, literal(-3)))
          CFI (cfiCond3) DPL0 load(1, XDATA, add(CFA_XSP16, literal(-2)))
          CFI (cfiCond3) DPH0 load(1, XDATA, add(CFA_XSP16, literal(-1)))
          CFI (cfiCond3) CFA_XSP16 add(XSP16, 71)
          CFI Block cfiCond4 Using cfiCommon0
          CFI (cfiCond4) Function GenericApp_ProcessEvent
          CFI (cfiCond4) Conditional ??CrossCallReturnLabel_2
          CFI (cfiCond4) R6 load(1, XDATA, add(CFA_XSP16, literal(-16)))
          CFI (cfiCond4) VB load(1, XDATA, add(CFA_XSP16, literal(-15)))
          CFI (cfiCond4) V0 load(1, XDATA, add(CFA_XSP16, literal(-14)))
          CFI (cfiCond4) V1 load(1, XDATA, add(CFA_XSP16, literal(-13)))
          CFI (cfiCond4) V2 load(1, XDATA, add(CFA_XSP16, literal(-12)))
          CFI (cfiCond4) V3 load(1, XDATA, add(CFA_XSP16, literal(-11)))
          CFI (cfiCond4) V4 load(1, XDATA, add(CFA_XSP16, literal(-10)))
          CFI (cfiCond4) V5 load(1, XDATA, add(CFA_XSP16, literal(-9)))
          CFI (cfiCond4) V6 load(1, XDATA, add(CFA_XSP16, literal(-8)))
          CFI (cfiCond4) V7 load(1, XDATA, add(CFA_XSP16, literal(-7)))
          CFI (cfiCond4) R7 load(1, XDATA, add(CFA_XSP16, literal(-6)))
          CFI (cfiCond4) ?RET_LOW load(1, XDATA, add(CFA_XSP16, literal(-5)))
          CFI (cfiCond4) ?RET_HIGH load(1, XDATA, add(CFA_XSP16, literal(-4)))
          CFI (cfiCond4) ?BRET_EXT load(1, XDATA, add(CFA_XSP16, literal(-3)))
          CFI (cfiCond4) DPL0 load(1, XDATA, add(CFA_XSP16, literal(-2)))
          CFI (cfiCond4) DPH0 load(1, XDATA, add(CFA_XSP16, literal(-1)))
          CFI (cfiCond4) CFA_SP SP+-2
          CFI (cfiCond4) CFA_XSP16 add(XSP16, 71)
          CFI Block cfiPicker5 Using cfiCommon1
          CFI (cfiPicker5) NoFunction
          CFI (cfiPicker5) Picker
        MOV     A,DPL
        ADD     A,R0
        MOV     DPL,A
        CLR     A
        ADDC    A,DPH
        MOV     DPH,A
        RET
          CFI EndBlock cfiCond2
          CFI EndBlock cfiCond3
          CFI EndBlock cfiCond4
          CFI EndBlock cfiPicker5

        RSEG BANKED_CODE:HUGECODE:NOROOT(0)
?Subroutine1:
          CFI Block cfiCond6 Using cfiCommon0
          CFI Function GenericApp_ProcessEvent
          CFI Conditional ??CrossCallReturnLabel_5
          CFI R6 load(1, XDATA, add(CFA_XSP16, literal(-16)))
          CFI VB load(1, XDATA, add(CFA_XSP16, literal(-15)))
          CFI V0 load(1, XDATA, add(CFA_XSP16, literal(-14)))
          CFI V1 load(1, XDATA, add(CFA_XSP16, literal(-13)))
          CFI V2 load(1, XDATA, add(CFA_XSP16, literal(-12)))
          CFI V3 load(1, XDATA, add(CFA_XSP16, literal(-11)))
          CFI V4 load(1, XDATA, add(CFA_XSP16, literal(-10)))
          CFI V5 load(1, XDATA, add(CFA_XSP16, literal(-9)))
          CFI V6 load(1, XDATA, add(CFA_XSP16, literal(-8)))
          CFI V7 load(1, XDATA, add(CFA_XSP16, literal(-7)))
          CFI R7 load(1, XDATA, add(CFA_XSP16, literal(-6)))
          CFI ?RET_LOW load(1, XDATA, add(CFA_XSP16, literal(-5)))
          CFI ?RET_HIGH load(1, XDATA, add(CFA_XSP16, literal(-4)))
          CFI ?BRET_EXT load(1, XDATA, add(CFA_XSP16, literal(-3)))
          CFI DPL0 load(1, XDATA, add(CFA_XSP16, literal(-2)))
          CFI DPH0 load(1, XDATA, add(CFA_XSP16, literal(-1)))
          CFI CFA_SP SP+-2
          CFI CFA_XSP16 add(XSP16, 71)
          CFI Block cfiCond7 Using cfiCommon0
          CFI (cfiCond7) Function GenericApp_ProcessEvent
          CFI (cfiCond7) Conditional ??CrossCallReturnLabel_6
          CFI (cfiCond7) R6 load(1, XDATA, add(CFA_XSP16, literal(-16)))
          CFI (cfiCond7) VB load(1, XDATA, add(CFA_XSP16, literal(-15)))
          CFI (cfiCond7) V0 load(1, XDATA, add(CFA_XSP16, literal(-14)))
          CFI (cfiCond7) V1 load(1, XDATA, add(CFA_XSP16, literal(-13)))
          CFI (cfiCond7) V2 load(1, XDATA, add(CFA_XSP16, literal(-12)))
          CFI (cfiCond7) V3 load(1, XDATA, add(CFA_XSP16, literal(-11)))
          CFI (cfiCond7) V4 load(1, XDATA, add(CFA_XSP16, literal(-10)))
          CFI (cfiCond7) V5 load(1, XDATA, add(CFA_XSP16, literal(-9)))
          CFI (cfiCond7) V6 load(1, XDATA, add(CFA_XSP16, literal(-8)))
          CFI (cfiCond7) V7 load(1, XDATA, add(CFA_XSP16, literal(-7)))
          CFI (cfiCond7) R7 load(1, XDATA, add(CFA_XSP16, literal(-6)))
          CFI (cfiCond7) ?RET_LOW load(1, XDATA, add(CFA_XSP16, literal(-5)))
          CFI (cfiCond7) ?RET_HIGH load(1, XDATA, add(CFA_XSP16, literal(-4)))
          CFI (cfiCond7) ?BRET_EXT load(1, XDATA, add(CFA_XSP16, literal(-3)))
          CFI (cfiCond7) DPL0 load(1, XDATA, add(CFA_XSP16, literal(-2)))
          CFI (cfiCond7) DPH0 load(1, XDATA, add(CFA_XSP16, literal(-1)))
          CFI (cfiCond7) CFA_SP SP+-2
          CFI (cfiCond7) CFA_XSP16 add(XSP16, 71)
          CFI Block cfiPicker8 Using cfiCommon1
          CFI (cfiPicker8) NoFunction
          CFI (cfiPicker8) Picker
        MOV     DPTR,#rxBuffer
          CFI EndBlock cfiCond6
          CFI EndBlock cfiCond7
          CFI EndBlock cfiPicker8
        REQUIRE ??Subroutine3_0
        ; // Fall through to label ??Subroutine3_0

        RSEG BANKED_CODE:HUGECODE:NOROOT(0)
??Subroutine3_0:
          CFI Block cfiCond9 Using cfiCommon0
          CFI Function GenericApp_ProcessEvent
          CFI Conditional ??CrossCallReturnLabel_3
          CFI R6 load(1, XDATA, add(CFA_XSP16, literal(-16)))
          CFI VB load(1, XDATA, add(CFA_XSP16, literal(-15)))
          CFI V0 load(1, XDATA, add(CFA_XSP16, literal(-14)))
          CFI V1 load(1, XDATA, add(CFA_XSP16, literal(-13)))
          CFI V2 load(1, XDATA, add(CFA_XSP16, literal(-12)))
          CFI V3 load(1, XDATA, add(CFA_XSP16, literal(-11)))
          CFI V4 load(1, XDATA, add(CFA_XSP16, literal(-10)))
          CFI V5 load(1, XDATA, add(CFA_XSP16, literal(-9)))
          CFI V6 load(1, XDATA, add(CFA_XSP16, literal(-8)))
          CFI V7 load(1, XDATA, add(CFA_XSP16, literal(-7)))
          CFI R7 load(1, XDATA, add(CFA_XSP16, literal(-6)))
          CFI ?RET_LOW load(1, XDATA, add(CFA_XSP16, literal(-5)))
          CFI ?RET_HIGH load(1, XDATA, add(CFA_XSP16, literal(-4)))
          CFI ?BRET_EXT load(1, XDATA, add(CFA_XSP16, literal(-3)))
          CFI DPL0 load(1, XDATA, add(CFA_XSP16, literal(-2)))
          CFI DPH0 load(1, XDATA, add(CFA_XSP16, literal(-1)))
          CFI CFA_SP SP+-2
          CFI CFA_XSP16 add(XSP16, 78)
          CFI Block cfiCond10 Using cfiCommon0
          CFI (cfiCond10) Function GenericApp_ProcessEvent
          CFI (cfiCond10) Conditional ??CrossCallReturnLabel_4
          CFI (cfiCond10) R6 load(1, XDATA, add(CFA_XSP16, literal(-16)))
          CFI (cfiCond10) VB load(1, XDATA, add(CFA_XSP16, literal(-15)))
          CFI (cfiCond10) V0 load(1, XDATA, add(CFA_XSP16, literal(-14)))
          CFI (cfiCond10) V1 load(1, XDATA, add(CFA_XSP16, literal(-13)))
          CFI (cfiCond10) V2 load(1, XDATA, add(CFA_XSP16, literal(-12)))
          CFI (cfiCond10) V3 load(1, XDATA, add(CFA_XSP16, literal(-11)))
          CFI (cfiCond10) V4 load(1, XDATA, add(CFA_XSP16, literal(-10)))
          CFI (cfiCond10) V5 load(1, XDATA, add(CFA_XSP16, literal(-9)))
          CFI (cfiCond10) V6 load(1, XDATA, add(CFA_XSP16, literal(-8)))
          CFI (cfiCond10) V7 load(1, XDATA, add(CFA_XSP16, literal(-7)))
          CFI (cfiCond10) R7 load(1, XDATA, add(CFA_XSP16, literal(-6)))
          CFI (cfiCond10) ?RET_LOW load(1, XDATA, add(CFA_XSP16, literal(-5)))
          CFI (cfiCond10) ?RET_HIGH load(1, XDATA, add(CFA_XSP16, literal(-4)))
          CFI (cfiCond10) ?BRET_EXT load(1, XDATA, add(CFA_XSP16, literal(-3)))
          CFI (cfiCond10) DPL0 load(1, XDATA, add(CFA_XSP16, literal(-2)))
          CFI (cfiCond10) DPH0 load(1, XDATA, add(CFA_XSP16, literal(-1)))
          CFI (cfiCond10) CFA_SP SP+-2
          CFI (cfiCond10) CFA_XSP16 add(XSP16, 71)
          CFI Block cfiCond11 Using cfiCommon0
          CFI (cfiCond11) Function GenericApp_ProcessEvent
          CFI (cfiCond11) Conditional ??CrossCallReturnLabel_5
          CFI (cfiCond11) R6 load(1, XDATA, add(CFA_XSP16, literal(-16)))
          CFI (cfiCond11) VB load(1, XDATA, add(CFA_XSP16, literal(-15)))
          CFI (cfiCond11) V0 load(1, XDATA, add(CFA_XSP16, literal(-14)))
          CFI (cfiCond11) V1 load(1, XDATA, add(CFA_XSP16, literal(-13)))
          CFI (cfiCond11) V2 load(1, XDATA, add(CFA_XSP16, literal(-12)))
          CFI (cfiCond11) V3 load(1, XDATA, add(CFA_XSP16, literal(-11)))
          CFI (cfiCond11) V4 load(1, XDATA, add(CFA_XSP16, literal(-10)))
          CFI (cfiCond11) V5 load(1, XDATA, add(CFA_XSP16, literal(-9)))
          CFI (cfiCond11) V6 load(1, XDATA, add(CFA_XSP16, literal(-8)))
          CFI (cfiCond11) V7 load(1, XDATA, add(CFA_XSP16, literal(-7)))
          CFI (cfiCond11) R7 load(1, XDATA, add(CFA_XSP16, literal(-6)))
          CFI (cfiCond11) ?RET_LOW load(1, XDATA, add(CFA_XSP16, literal(-5)))
          CFI (cfiCond11) ?RET_HIGH load(1, XDATA, add(CFA_XSP16, literal(-4)))
          CFI (cfiCond11) ?BRET_EXT load(1, XDATA, add(CFA_XSP16, literal(-3)))
          CFI (cfiCond11) DPL0 load(1, XDATA, add(CFA_XSP16, literal(-2)))
          CFI (cfiCond11) DPH0 load(1, XDATA, add(CFA_XSP16, literal(-1)))
          CFI (cfiCond11) CFA_SP SP+-2
          CFI (cfiCond11) CFA_XSP16 add(XSP16, 71)
          CFI Block cfiCond12 Using cfiCommon0
          CFI (cfiCond12) Function GenericApp_ProcessEvent
          CFI (cfiCond12) Conditional ??CrossCallReturnLabel_6
          CFI (cfiCond12) R6 load(1, XDATA, add(CFA_XSP16, literal(-16)))
          CFI (cfiCond12) VB load(1, XDATA, add(CFA_XSP16, literal(-15)))
          CFI (cfiCond12) V0 load(1, XDATA, add(CFA_XSP16, literal(-14)))
          CFI (cfiCond12) V1 load(1, XDATA, add(CFA_XSP16, literal(-13)))
          CFI (cfiCond12) V2 load(1, XDATA, add(CFA_XSP16, literal(-12)))
          CFI (cfiCond12) V3 load(1, XDATA, add(CFA_XSP16, literal(-11)))
          CFI (cfiCond12) V4 load(1, XDATA, add(CFA_XSP16, literal(-10)))
          CFI (cfiCond12) V5 load(1, XDATA, add(CFA_XSP16, literal(-9)))
          CFI (cfiCond12) V6 load(1, XDATA, add(CFA_XSP16, literal(-8)))
          CFI (cfiCond12) V7 load(1, XDATA, add(CFA_XSP16, literal(-7)))
          CFI (cfiCond12) R7 load(1, XDATA, add(CFA_XSP16, literal(-6)))
          CFI (cfiCond12) ?RET_LOW load(1, XDATA, add(CFA_XSP16, literal(-5)))
          CFI (cfiCond12) ?RET_HIGH load(1, XDATA, add(CFA_XSP16, literal(-4)))
          CFI (cfiCond12) ?BRET_EXT load(1, XDATA, add(CFA_XSP16, literal(-3)))
          CFI (cfiCond12) DPL0 load(1, XDATA, add(CFA_XSP16, literal(-2)))
          CFI (cfiCond12) DPH0 load(1, XDATA, add(CFA_XSP16, literal(-1)))
          CFI (cfiCond12) CFA_SP SP+-2
          CFI (cfiCond12) CFA_XSP16 add(XSP16, 71)
          CFI Block cfiPicker13 Using cfiCommon1
          CFI (cfiPicker13) NoFunction
          CFI (cfiPicker13) Picker
        MOVX    A,@DPTR
        MOV     R2,A
        INC     DPTR
        MOVX    A,@DPTR
        MOV     R3,A
        RET
          CFI EndBlock cfiCond9
          CFI EndBlock cfiCond10
          CFI EndBlock cfiCond11
          CFI EndBlock cfiCond12
          CFI EndBlock cfiPicker13

        RSEG BANKED_CODE:HUGECODE:NOROOT(0)
?Subroutine0:
          CFI Block cfiCond14 Using cfiCommon0
          CFI Function GenericApp_ProcessEvent
          CFI Conditional ??CrossCallReturnLabel_9
          CFI R6 load(1, XDATA, add(CFA_XSP16, literal(-16)))
          CFI VB load(1, XDATA, add(CFA_XSP16, literal(-15)))
          CFI V0 load(1, XDATA, add(CFA_XSP16, literal(-14)))
          CFI V1 load(1, XDATA, add(CFA_XSP16, literal(-13)))
          CFI V2 load(1, XDATA, add(CFA_XSP16, literal(-12)))
          CFI V3 load(1, XDATA, add(CFA_XSP16, literal(-11)))
          CFI V4 load(1, XDATA, add(CFA_XSP16, literal(-10)))
          CFI V5 load(1, XDATA, add(CFA_XSP16, literal(-9)))
          CFI V6 load(1, XDATA, add(CFA_XSP16, literal(-8)))
          CFI V7 load(1, XDATA, add(CFA_XSP16, literal(-7)))
          CFI R7 load(1, XDATA, add(CFA_XSP16, literal(-6)))
          CFI ?RET_LOW load(1, XDATA, add(CFA_XSP16, literal(-5)))
          CFI ?RET_HIGH load(1, XDATA, add(CFA_XSP16, literal(-4)))
          CFI ?BRET_EXT load(1, XDATA, add(CFA_XSP16, literal(-3)))
          CFI DPL0 load(1, XDATA, add(CFA_XSP16, literal(-2)))
          CFI DPH0 load(1, XDATA, add(CFA_XSP16, literal(-1)))
          CFI CFA_SP SP+-2
          CFI CFA_XSP16 add(XSP16, 71)
          CFI Block cfiCond15 Using cfiCommon0
          CFI (cfiCond15) Function GenericApp_ProcessEvent
          CFI (cfiCond15) Conditional ??CrossCallReturnLabel_10
          CFI (cfiCond15) R6 load(1, XDATA, add(CFA_XSP16, literal(-16)))
          CFI (cfiCond15) VB load(1, XDATA, add(CFA_XSP16, literal(-15)))
          CFI (cfiCond15) V0 load(1, XDATA, add(CFA_XSP16, literal(-14)))
          CFI (cfiCond15) V1 load(1, XDATA, add(CFA_XSP16, literal(-13)))
          CFI (cfiCond15) V2 load(1, XDATA, add(CFA_XSP16, literal(-12)))
          CFI (cfiCond15) V3 load(1, XDATA, add(CFA_XSP16, literal(-11)))
          CFI (cfiCond15) V4 load(1, XDATA, add(CFA_XSP16, literal(-10)))
          CFI (cfiCond15) V5 load(1, XDATA, add(CFA_XSP16, literal(-9)))
          CFI (cfiCond15) V6 load(1, XDATA, add(CFA_XSP16, literal(-8)))
          CFI (cfiCond15) V7 load(1, XDATA, add(CFA_XSP16, literal(-7)))
          CFI (cfiCond15) R7 load(1, XDATA, add(CFA_XSP16, literal(-6)))
          CFI (cfiCond15) ?RET_LOW load(1, XDATA, add(CFA_XSP16, literal(-5)))
          CFI (cfiCond15) ?RET_HIGH load(1, XDATA, add(CFA_XSP16, literal(-4)))
          CFI (cfiCond15) ?BRET_EXT load(1, XDATA, add(CFA_XSP16, literal(-3)))
          CFI (cfiCond15) DPL0 load(1, XDATA, add(CFA_XSP16, literal(-2)))
          CFI (cfiCond15) DPH0 load(1, XDATA, add(CFA_XSP16, literal(-1)))
          CFI (cfiCond15) CFA_SP SP+-2
          CFI (cfiCond15) CFA_XSP16 add(XSP16, 71)
          CFI Block cfiPicker16 Using cfiCommon1
          CFI (cfiPicker16) NoFunction
          CFI (cfiPicker16) Picker
        ADDC    A,R1
        MOV     DPH,A
          CFI EndBlock cfiCond14
          CFI EndBlock cfiCond15
          CFI EndBlock cfiPicker16
        REQUIRE ??Subroutine4_0
        ; // Fall through to label ??Subroutine4_0

        RSEG BANKED_CODE:HUGECODE:NOROOT(0)
??Subroutine4_0:
          CFI Block cfiCond17 Using cfiCommon0
          CFI Function GenericApp_ProcessEvent
          CFI Conditional ??CrossCallReturnLabel_7
          CFI R6 load(1, XDATA, add(CFA_XSP16, literal(-16)))
          CFI VB load(1, XDATA, add(CFA_XSP16, literal(-15)))
          CFI V0 load(1, XDATA, add(CFA_XSP16, literal(-14)))
          CFI V1 load(1, XDATA, add(CFA_XSP16, literal(-13)))
          CFI V2 load(1, XDATA, add(CFA_XSP16, literal(-12)))
          CFI V3 load(1, XDATA, add(CFA_XSP16, literal(-11)))
          CFI V4 load(1, XDATA, add(CFA_XSP16, literal(-10)))
          CFI V5 load(1, XDATA, add(CFA_XSP16, literal(-9)))
          CFI V6 load(1, XDATA, add(CFA_XSP16, literal(-8)))
          CFI V7 load(1, XDATA, add(CFA_XSP16, literal(-7)))
          CFI R7 load(1, XDATA, add(CFA_XSP16, literal(-6)))
          CFI ?RET_LOW load(1, XDATA, add(CFA_XSP16, literal(-5)))
          CFI ?RET_HIGH load(1, XDATA, add(CFA_XSP16, literal(-4)))
          CFI ?BRET_EXT load(1, XDATA, add(CFA_XSP16, literal(-3)))
          CFI DPL0 load(1, XDATA, add(CFA_XSP16, literal(-2)))
          CFI DPH0 load(1, XDATA, add(CFA_XSP16, literal(-1)))
          CFI CFA_SP SP+-2
          CFI CFA_XSP16 add(XSP16, 71)
          CFI Block cfiCond18 Using cfiCommon0
          CFI (cfiCond18) Function GenericApp_ProcessEvent
          CFI (cfiCond18) Conditional ??CrossCallReturnLabel_8
          CFI (cfiCond18) R6 load(1, XDATA, add(CFA_XSP16, literal(-16)))
          CFI (cfiCond18) VB load(1, XDATA, add(CFA_XSP16, literal(-15)))
          CFI (cfiCond18) V0 load(1, XDATA, add(CFA_XSP16, literal(-14)))
          CFI (cfiCond18) V1 load(1, XDATA, add(CFA_XSP16, literal(-13)))
          CFI (cfiCond18) V2 load(1, XDATA, add(CFA_XSP16, literal(-12)))
          CFI (cfiCond18) V3 load(1, XDATA, add(CFA_XSP16, literal(-11)))
          CFI (cfiCond18) V4 load(1, XDATA, add(CFA_XSP16, literal(-10)))
          CFI (cfiCond18) V5 load(1, XDATA, add(CFA_XSP16, literal(-9)))
          CFI (cfiCond18) V6 load(1, XDATA, add(CFA_XSP16, literal(-8)))
          CFI (cfiCond18) V7 load(1, XDATA, add(CFA_XSP16, literal(-7)))
          CFI (cfiCond18) R7 load(1, XDATA, add(CFA_XSP16, literal(-6)))
          CFI (cfiCond18) ?RET_LOW load(1, XDATA, add(CFA_XSP16, literal(-5)))
          CFI (cfiCond18) ?RET_HIGH load(1, XDATA, add(CFA_XSP16, literal(-4)))
          CFI (cfiCond18) ?BRET_EXT load(1, XDATA, add(CFA_XSP16, literal(-3)))
          CFI (cfiCond18) DPL0 load(1, XDATA, add(CFA_XSP16, literal(-2)))
          CFI (cfiCond18) DPH0 load(1, XDATA, add(CFA_XSP16, literal(-1)))
          CFI (cfiCond18) CFA_SP SP+-2
          CFI (cfiCond18) CFA_XSP16 add(XSP16, 71)
          CFI Block cfiCond19 Using cfiCommon0
          CFI (cfiCond19) Function GenericApp_ProcessEvent
          CFI (cfiCond19) Conditional ??CrossCallReturnLabel_9
          CFI (cfiCond19) R6 load(1, XDATA, add(CFA_XSP16, literal(-16)))
          CFI (cfiCond19) VB load(1, XDATA, add(CFA_XSP16, literal(-15)))
          CFI (cfiCond19) V0 load(1, XDATA, add(CFA_XSP16, literal(-14)))
          CFI (cfiCond19) V1 load(1, XDATA, add(CFA_XSP16, literal(-13)))
          CFI (cfiCond19) V2 load(1, XDATA, add(CFA_XSP16, literal(-12)))
          CFI (cfiCond19) V3 load(1, XDATA, add(CFA_XSP16, literal(-11)))
          CFI (cfiCond19) V4 load(1, XDATA, add(CFA_XSP16, literal(-10)))
          CFI (cfiCond19) V5 load(1, XDATA, add(CFA_XSP16, literal(-9)))
          CFI (cfiCond19) V6 load(1, XDATA, add(CFA_XSP16, literal(-8)))
          CFI (cfiCond19) V7 load(1, XDATA, add(CFA_XSP16, literal(-7)))
          CFI (cfiCond19) R7 load(1, XDATA, add(CFA_XSP16, literal(-6)))
          CFI (cfiCond19) ?RET_LOW load(1, XDATA, add(CFA_XSP16, literal(-5)))
          CFI (cfiCond19) ?RET_HIGH load(1, XDATA, add(CFA_XSP16, literal(-4)))
          CFI (cfiCond19) ?BRET_EXT load(1, XDATA, add(CFA_XSP16, literal(-3)))
          CFI (cfiCond19) DPL0 load(1, XDATA, add(CFA_XSP16, literal(-2)))
          CFI (cfiCond19) DPH0 load(1, XDATA, add(CFA_XSP16, literal(-1)))
          CFI (cfiCond19) CFA_SP SP+-2
          CFI (cfiCond19) CFA_XSP16 add(XSP16, 71)
          CFI Block cfiCond20 Using cfiCommon0
          CFI (cfiCond20) Function GenericApp_ProcessEvent
          CFI (cfiCond20) Conditional ??CrossCallReturnLabel_10
          CFI (cfiCond20) R6 load(1, XDATA, add(CFA_XSP16, literal(-16)))
          CFI (cfiCond20) VB load(1, XDATA, add(CFA_XSP16, literal(-15)))
          CFI (cfiCond20) V0 load(1, XDATA, add(CFA_XSP16, literal(-14)))
          CFI (cfiCond20) V1 load(1, XDATA, add(CFA_XSP16, literal(-13)))
          CFI (cfiCond20) V2 load(1, XDATA, add(CFA_XSP16, literal(-12)))
          CFI (cfiCond20) V3 load(1, XDATA, add(CFA_XSP16, literal(-11)))
          CFI (cfiCond20) V4 load(1, XDATA, add(CFA_XSP16, literal(-10)))
          CFI (cfiCond20) V5 load(1, XDATA, add(CFA_XSP16, literal(-9)))
          CFI (cfiCond20) V6 load(1, XDATA, add(CFA_XSP16, literal(-8)))
          CFI (cfiCond20) V7 load(1, XDATA, add(CFA_XSP16, literal(-7)))
          CFI (cfiCond20) R7 load(1, XDATA, add(CFA_XSP16, literal(-6)))
          CFI (cfiCond20) ?RET_LOW load(1, XDATA, add(CFA_XSP16, literal(-5)))
          CFI (cfiCond20) ?RET_HIGH load(1, XDATA, add(CFA_XSP16, literal(-4)))
          CFI (cfiCond20) ?BRET_EXT load(1, XDATA, add(CFA_XSP16, literal(-3)))
          CFI (cfiCond20) DPL0 load(1, XDATA, add(CFA_XSP16, literal(-2)))
          CFI (cfiCond20) DPH0 load(1, XDATA, add(CFA_XSP16, literal(-1)))
          CFI (cfiCond20) CFA_SP SP+-2
          CFI (cfiCond20) CFA_XSP16 add(XSP16, 71)
          CFI Block cfiPicker21 Using cfiCommon1
          CFI (cfiPicker21) NoFunction
          CFI (cfiPicker21) Picker
        MOVX    A,@DPTR
        MOV     R0,A
        INC     DPTR
        MOVX    A,@DPTR
        MOV     R1,A
        RET
          CFI EndBlock cfiCond17
          CFI EndBlock cfiCond18
          CFI EndBlock cfiCond19
          CFI EndBlock cfiCond20
          CFI EndBlock cfiPicker21

        RSEG XDATA_ID:CODE:NOROOT(0)
`?<Initializer for coin>`:
        DATA8
        DB 1

        RSEG XDATA_ID:CODE:NOROOT(0)
`?<Initializer for keyPressSW4>`:
        DATA8
        DB 1

        RSEG XDATA_ID:CODE:NOROOT(0)
`?<Initializer for txMsgDelay>`:
        DATA32
        DD 5000

        RSEG BANK_RELAYS:CODE:REORDER:NOROOT(0)
`??GenericApp_Init::?relay`:
        CODE
        LCALL   ?BDISPATCH
        DATA24
        DC24    GenericApp_Init

        RSEG BANK_RELAYS:CODE:REORDER:NOROOT(0)
`??GenericApp_ProcessEvent::?relay`:
        CODE
        LCALL   ?BDISPATCH
        DATA24
        DC24    GenericApp_ProcessEvent

        RSEG XDATA_ROM_C:CONST:REORDER:NOROOT(0)
        DATA8
`?<Constant "GenericApp">`:
        DB "GenericApp"

        RSEG XDATA_ROM_C:CONST:REORDER:NOROOT(0)
        DATA8
`?<Constant "End Device Match Desc">`:
        DB "End Device Match Desc"

        RSEG XDATA_ROM_C:CONST:REORDER:NOROOT(0)
        DATA32
__Constant_3e8:
        DD 1000

        END
//  697 
//  698 /*********************************************************************
//  699  * Event Generation Functions
//  700  */
//  701 
//  702 /*********************************************************************
//  703  * @fn      GenericApp_ProcessZDOMsgs()
//  704  *
//  705  * @brief   Process response messages
//  706  *
//  707  * @param   none
//  708  *
//  709  * @return  none
//  710  */
//  711 static void GenericApp_ProcessZDOMsgs( zdoIncomingMsg_t *inMsg )
//  712 {
//  713 
//  714   switch ( inMsg->clusterID )
//  715   {
//  716     case End_Device_Bind_rsp:
//  717       if ( ZDO_ParseBindRsp( inMsg ) == ZSuccess )
//  718       {
//  719       
//  720         // Light LED
//  721         HalLedSet( HAL_LED_4, HAL_LED_MODE_ON );
//  722       }
//  723 #if defined( BLINK_LEDS )
//  724       else
//  725       {
//  726         // Flash LED to show failure
//  727         HalLedSet ( HAL_LED_4, HAL_LED_MODE_FLASH );
//  728       }
//  729 #endif
//  730       break;
//  731 
//  732     case Match_Desc_rsp:
//  733       {
//  734         HalLcdWriteString("End Device Match Desc",0);
//  735         
//  736         ZDO_ActiveEndpointRsp_t *pRsp = ZDO_ParseEPListRsp( inMsg );
//  737         if ( pRsp )
//  738         {
//  739               if ( pRsp->status == ZSuccess && pRsp->cnt )
//  740               {
//  741                 
//  742             GenericApp_DstAddr.addrMode = (afAddrMode_t)Addr16Bit;
//  743             GenericApp_DstAddr.addr.shortAddr = pRsp->nwkAddr;
//  744             // Take the first endpoint, Can be changed to search through endpoints
//  745             GenericApp_DstAddr.endPoint = pRsp->epList[0];
//  746 
//  747             // Light LED
//  748             HalLedSet( HAL_LED_4, HAL_LED_MODE_ON );
//  749           }
//  750           osal_mem_free( pRsp );
//  751         }
//  752       }
//  753       break;
//  754   }
//  755 }
//  756 
//  757 
//  758 /*********************************************************************
//  759  * LOCAL FUNCTIONS
//  760  */
//  761 
//  762 /*********************************************************************
//  763  * @fn      GenericApp_MessageMSGCB
//  764  *
//  765  * @brief   Data message processor callback.  This function processes
//  766  *          any incoming data - probably from other devices.  So, based
//  767  *          on cluster ID, perform the intended action.
//  768  *
//  769  * @param   none
//  770  *
//  771  * @return  none
//  772  */
//  773 static void GenericApp_MessageMSGCB( afIncomingMSGPacket_t *pkt )
//  774 {
//  775   //uint8 i;
//  776   //////////////////////////////////////////////////////////////////////////////
//  777   Data_t Data;
//  778   uint16 addr;
//  779   //char * id;
//  780   //////////////////////////////////////////////////////////////////////////////
//  781   switch ( pkt->clusterId )
//  782   {
//  783     case GENERICAPP_CLUSTERID:
//  784       
//  785       {
//  786       rxMsgCount += 1;  // Count this message
//  787       HalLedSet ( HAL_LED_4, HAL_LED_MODE_BLINK );  // Blink an LED
//  788 
//  789 
//  790  ////////////////////////////////////////////////////////////////////////////////////////////////////////////////////
//  791       //Data.devID = *(pkt->cmd.Data);
//  792       Data.devID =getIDFromPkt(&pkt->cmd);
//  793 
//  794       Data.data =getDataFromPkt(&pkt->cmd); 
//  795       //id = (char*)&Data.data;
//  796       addr = pkt->macSrcAddr;
//  797       
//  798       updateLookUpTable(Data, addr);
//  799 
//  800       
//  801  ///////////////////////////////////////////////////////////////////////////////
//  802  
//  803      
//  804       }
//  805       break; //break first switch
//  806       
//  807   default:
//  808     
//  809    //HalLcdWriteString("Podatak nije primljen.",0);
//  810         
//  811     break;
//  812 
//  813   }
//  814 
//  815 
//  816 }
//  817 
//  818 /*********************************************************************
//  819  * @fn      GenericApp_SendTheMessage
//  820  *
//  821  * @brief   Send "the" message.
//  822  *
//  823  * @param   none
//  824 
//  825  *
//  826  * @return  none
//  827  */
//  828 static void GenericApp_SendTheMessage( void )
//  829 {
//  830   uint8 i;
//  831  // char * id;
//  832   //uint32 data;
//  833   //BS
//  834   //char doorOpened[] = {'S','E','N','D','\0'};
//  835   
//  836    // Successfully requested to be sent.
//  837     //HalLcdWriteString("Podatak je poslan.",0);
//  838   /* 
//  839   GenericApp_DstAddress.addrMode = (afAddrMode_t)Addr16Bit;
//  840     GenericApp_DstAddress.endPoint = GENERICAPP_ENDPOINT;
//  841     GenericApp_DstAddress.addr.shortAddr = lutData[0].devAddress;
//  842 */
//  843           //GenericApp_DstAddr.addrMode = (afAddrMode_t)Addr16Bit;
//  844   //GenericApp_DstAddr.endPoint = GENERICAPP_ENDPOINT;
//  845   //GenericApp_DstAddr.addr.shortAddr = 0xFFFF; //0;// NLME_GetShortAddr();//1;*/
//  846     
//  847     //HalLcdWriteString("Provjera slanja",0);
//  848   
//  849     //HalUARTWrite(HAL_UART_PORT_1, "Sinisa", 7);
//  850     
//  851    for(i = 0; i < 20; i++)
//  852   {
//  853     //HalLcdWriteString("Sinisa-------------petlja-----",0);
//  854     if(0 != lutData[i].devID)
//  855     {
//  856       sendDataToPC(&lutData[i]);
//  857       
//  858      //GenericApp_DstAddr.addr.shortAddr = lutData[0].devAddress;
//  859       //GenericApp_DstAddr.addr.shortAddr = 0xFFFF; 
//  860       /*
//  861       GenericApp_DstAddress.addr.shortAddr = lookForAddr(lutData[i].devID);
//  862     
//  863     AF_DataRequest( &GenericApp_DstAddress, &GenericApp_epDesc,
//  864                        GENERICAPP_CLUSTERID,
//  865                        5,                                                       
//  866                        (byte *)&doorOpened,
//  867                        &GenericApp_TransID,
//  868                        AF_DISCV_ROUTE, AF_DEFAULT_RADIUS );
//  869       */
//  870       //id = (char*)&lutData[i].devID;
//  871      //id[2] = '\0';
//  872         //HalLcdWriteString("-----------------------------Borislav  Send----------------------",0);
//  873         //HalLcdWriteString(id,0);
//  874         //HalLcdWriteString("-----------------------------Borislav  Send----------------------",0);
//  875       //HalLcdWriteString("Sinisa-------------petlja-----",0);
//  876     }
//  877   } 
//  878    //HalLcdWriteString("Sinisa----------------------",0); 
//  879 /*
//  880   
//  881   uint8 i;
//  882   char num = '0';
//  883 
//  884   char theMessageData[MAX_NUMBER_OF_ENDDEVICES][25] = {"You are EndDevice1111","You are EndDevice2222"};
//  885   //char *msg1;
//  886   //char *msg2;
//  887   //char *msg[MAX_NUMBER_OF_ENDDEVICES];
//  888   //HalLcdRead(msg[0],2);
//  889   //HalLcdRead(msg[1],2);
//  890   
//  891   //HalLcdWriteString("Sile in send",0);
//  892   */
//  893   /*
//  894   char theMessage[MAX_NUMBER_OF_ENDDEVICES][25] = {"0000", "FFFF"};
//  895   if('1' == (char)*buff)
//  896   {
//  897     theMessage[0][0] = (char)buff[0];
//  898     theMessage[0][1] = (char)buff[1];
//  899     theMessage[0][2] = '\0';
//  900     theMessage[1][0] = '0';
//  901     theMessage[1][1] = '0';
//  902     theMessage[1][2] = '\0';
//  903    // HalLcdWriteString("Buff 1",0);
//  904   }
//  905   else
//  906   {
//  907     theMessage[1][0] = (char)buff[0];
//  908     theMessage[1][1] = (char)buff[1];
//  909     //theMessage[1][0] = (char)*buff;
//  910     //theMessage[1][1] = (char)*(buff+1);
//  911     theMessage[1][2] = '\0';
//  912     theMessage[0][0] = '0';
//  913     theMessage[0][1] = '0';
//  914     theMessage[0][2] = '\0';
//  915     //HalLcdWriteString("Buff 2",0);
//  916   }
//  917   
//  918   for(i = 0; i<brojac; i++)
//  919   {
//  920    */ 
//  921    /*  HalLcdWriteString("Ulazak u petlju",0);
//  922      num+=i;
//  923      uartSend(num);
//  924      HalLcdWriteString("",0);
//  925      */
//  926   /*  if(GenericApp_DstAddress[i].addr.shortAddr != 0 )
//  927                          
//  928     {
//  929       if ( AF_DataRequest( &GenericApp_DstAddress[i], &GenericApp_epDesc,
//  930                          GENERICAPP_CLUSTERID,
//  931                          //(byte)osal_strlen( theMessageData[i] ) + 1,
//  932                          //(byte *)&theMessageData[i],
//  933                          (byte)osal_strlen( theMessage[i] ) + 1,
//  934                          (byte *)&theMessage[i],
//  935                          //(byte *)theMessageData[i],
//  936                          //(byte)osal_strlen(msg[i]) + 1,
//  937                          //(byte *)msg[i],
//  938                          &GenericApp_TransID,
//  939                          AF_DISCV_ROUTE, AF_DEFAULT_RADIUS ) == afStatus_SUCCESS )
//  940       {
//  941       // Successfully requested to be sent.
//  942         HalLcdWriteString("Podatak je poslan.",0);
//  943   */
//  944         /*HalLcdWriteString("###############################",0);
//  945      
//  946       
//  947           for(i = 0;i <3;i++)
//  948           {
//  949             uartSend(*(buff + i));
//  950           }
//  951       
//  952           HalLcdWriteString("",0);
//  953           HalLcdWriteString("--------------------------------",0);
//  954         */
//  955   /*    }
//  956       else
//  957       {
//  958       // Error occurred in request to send.
//  959         HalLcdWriteString("Podatak nije poslan.",0);
//  960       }
//  961     
//  962     }
//  963   }
//  964 
//  965   buff[0] = '\0';
//  966   */
//  967 }
//  968 
//  969 #if defined( IAR_ARMCM3_LM )
//  970 /*********************************************************************
//  971  * @fn      GenericApp_ProcessRtosMessage
//  972  *
//  973  * @brief   Receive message from RTOS queue, send response back.
//  974  *
//  975  * @param   none
//  976  *
//  977  * @return  none
//  978  */
//  979 static void GenericApp_ProcessRtosMessage( void )
//  980 {
//  981   osalQueue_t inMsg;
//  982 
//  983   if ( osal_queue_receive( OsalQueue, &inMsg, 0 ) == pdPASS )
//  984   {
//  985     uint8 cmndId = inMsg.cmnd;
//  986     uint32 counter = osal_build_uint32( inMsg.cbuf, 4 );
//  987 
//  988     switch ( cmndId )
//  989     {
//  990       case CMD_INCR:
//  991         counter += 1;  /* Increment the incoming counter */
//  992                        /* Intentionally fall through next case */
//  993 
//  994       case CMD_ECHO:
//  995       {
//  996         userQueue_t outMsg;
//  997 
//  998         outMsg.resp = RSP_CODE | cmndId;  /* Response ID */
//  999         osal_buffer_uint32( outMsg.rbuf, counter );    /* Increment counter */
// 1000         osal_queue_send( UserQueue1, &outMsg, 0 );  /* Send back to UserTask */
// 1001         break;
// 1002       }
// 1003 
// 1004       default:
// 1005         break;  /* Ignore unknown command */
// 1006     }
// 1007   }
// 1008 }
// 1009 #endif
// 1010 
// 1011 /**********************************************************************/
// 1012 
// 1013 /*********************************************************************/
// 
// 1 349 bytes in segment BANKED_CODE
//    12 bytes in segment BANK_RELAYS
//     6 bytes in segment XDATA_I
//     6 bytes in segment XDATA_ID
//    51 bytes in segment XDATA_ROM_C
//   324 bytes in segment XDATA_Z
// 
//    18 bytes of CODE     memory
//    47 bytes of CONST    memory (+ 4 bytes shared)
// 1 349 bytes of HUGECODE memory
//   330 bytes of XDATA    memory
//
//Errors: none
//Warnings: 1
