///////////////////////////////////////////////////////////////////////////////
//
// IAR C/C++ Compiler V9.30.3.3983 for 8051               05/May/2017  16:07:52
// Copyright 2004-2016 IAR Systems AB.
// Evaluation license - IAR Embedded Workbench for 8051, Evaluation version 9.30
//
//    Core               =  plain
//    Code model         =  banked
//    Data model         =  large
//    Calling convention =  xdata reentrant
//    Constant location  =  data_rom
//    Dptr setup         =  1,16
//                          
//    Source file        =  
//        C:\Users\ljuic\Desktop\New
//        folder\ZigBeeCoordinator\Components\hal\target\CC2530EB\hal_uart.c
//    Command line       =  
//        -f "C:\Users\ljuic\Desktop\New
//        folder\ZigBeeCoordinator\Projects\zstack\Samples\GenericApp\CC2530DB\..\..\..\Tools\CC2530DB\f8wCoord.cfg"
//        (-DCPU32MHZ -DROOT=__near_func -DMAC_CFG_APP_PENDING_QUEUE=TRUE
//        -DMAC_CFG_TX_DATA_MAX=5 -DMAC_CFG_TX_MAX=8 -DMAC_CFG_RX_MAX=5
//        -DZDO_COORDINATOR -DRTR_NWK) -f "C:\Users\ljuic\Desktop\New
//        folder\ZigBeeCoordinator\Projects\zstack\Samples\GenericApp\CC2530DB\..\..\..\Tools\CC2530DB\f8wConfig.cfg"
//        (-DZIGBEEPRO -DSECURE=1 -DZG_SECURE_DYNAMIC=0 -DREFLECTOR
//        -DDEFAULT_CHANLIST=0x00000800 -DZDAPP_CONFIG_PAN_ID=0x0422
//        -DNWK_START_DELAY=100 -DEXTENDED_JOINING_RANDOM_MASK=0x007F
//        -DBEACON_REQUEST_DELAY=100 -DBEACON_REQ_DELAY_MASK=0x00FF
//        -DLINK_STATUS_JITTER_MASK=0x007F -DROUTE_EXPIRY_TIME=30
//        -DAPSC_ACK_WAIT_DURATION_POLLED=3000 -DNWK_INDIRECT_MSG_TIMEOUT=7
//        -DMAX_RREQ_ENTRIES=8 -DAPSC_MAX_FRAME_RETRIES=3
//        -DNWK_MAX_DATA_RETRIES=2 -DMAX_POLL_FAILURE_RETRIES=2 -DMAX_BCAST=9
//        -DAPS_MAX_GROUPS=16 -DMAX_RTG_ENTRIES=40 -DNWK_MAX_BINDING_ENTRIES=4
//        -DMAX_BINDING_CLUSTER_IDS=4 "-DDEFAULT_KEY={0x01, 0x03, 0x05, 0x07,
//        0x09, 0x0B, 0x0D, 0x0F, 0x00, 0x02, 0x04, 0x06, 0x08, 0x0A, 0x0C,
//        0x0D}" -DMAC_MAX_FRAME_SIZE=116 -DZDNWKMGR_MIN_TRANSMISSIONS=20
//        "-DCONST=const __code" -DGENERIC=__generic -DRFD_RCVC_ALWAYS_ON=FALSE
//        -DPOLL_RATE=1000 -DQUEUED_POLL_RATE=100 -DRESPONSE_POLL_RATE=100)
//        -DREJOIN_POLL_RATE=440 "C:\Users\ljuic\Desktop\New
//        folder\ZigBeeCoordinator\Components\hal\target\CC2530EB\hal_uart.c"
//        -D ZTOOL_P1 -D MT_TASK -D MT_SYS_FUNC -D MT_ZDO_FUNC -D
//        LCD_SUPPORTED=DEBUG -lC "C:\Users\ljuic\Desktop\New
//        folder\ZigBeeCoordinator\Projects\zstack\Samples\GenericApp\CC2530DB\CoordinatorEB\List"
//        -lA "C:\Users\ljuic\Desktop\New
//        folder\ZigBeeCoordinator\Projects\zstack\Samples\GenericApp\CC2530DB\CoordinatorEB\List"
//        --diag_suppress Pe001,Pa010 -o "C:\Users\ljuic\Desktop\New
//        folder\ZigBeeCoordinator\Projects\zstack\Samples\GenericApp\CC2530DB\CoordinatorEB\Obj"
//        -e --no_code_motion --debug --core=plain --dptr=16,1
//        --data_model=large --code_model=banked
//        --calling_convention=xdata_reentrant --place_constants=data_rom
//        --nr_virtual_regs 16 -I "C:\Users\ljuic\Desktop\New
//        folder\ZigBeeCoordinator\Projects\zstack\Samples\GenericApp\CC2530DB\"
//        -I "C:\Users\ljuic\Desktop\New
//        folder\ZigBeeCoordinator\Projects\zstack\Samples\GenericApp\CC2530DB\..\Source\"
//        -I "C:\Users\ljuic\Desktop\New
//        folder\ZigBeeCoordinator\Projects\zstack\Samples\GenericApp\CC2530DB\..\..\..\ZMain\TI2530DB\"
//        -I "C:\Users\ljuic\Desktop\New
//        folder\ZigBeeCoordinator\Projects\zstack\Samples\GenericApp\CC2530DB\..\..\..\..\..\Components\hal\include\"
//        -I "C:\Users\ljuic\Desktop\New
//        folder\ZigBeeCoordinator\Projects\zstack\Samples\GenericApp\CC2530DB\..\..\..\..\..\Components\hal\target\CC2530EB\"
//        -I "C:\Users\ljuic\Desktop\New
//        folder\ZigBeeCoordinator\Projects\zstack\Samples\GenericApp\CC2530DB\..\..\..\..\..\Components\mac\include\"
//        -I "C:\Users\ljuic\Desktop\New
//        folder\ZigBeeCoordinator\Projects\zstack\Samples\GenericApp\CC2530DB\..\..\..\..\..\Components\mac\high_level\"
//        -I "C:\Users\ljuic\Desktop\New
//        folder\ZigBeeCoordinator\Projects\zstack\Samples\GenericApp\CC2530DB\..\..\..\..\..\Components\mac\low_level\srf04\"
//        -I "C:\Users\ljuic\Desktop\New
//        folder\ZigBeeCoordinator\Projects\zstack\Samples\GenericApp\CC2530DB\..\..\..\..\..\Components\mac\low_level\srf04\single_chip\"
//        -I "C:\Users\ljuic\Desktop\New
//        folder\ZigBeeCoordinator\Projects\zstack\Samples\GenericApp\CC2530DB\..\..\..\..\..\Components\mt\"
//        -I "C:\Users\ljuic\Desktop\New
//        folder\ZigBeeCoordinator\Projects\zstack\Samples\GenericApp\CC2530DB\..\..\..\..\..\Components\osal\include\"
//        -I "C:\Users\ljuic\Desktop\New
//        folder\ZigBeeCoordinator\Projects\zstack\Samples\GenericApp\CC2530DB\..\..\..\..\..\Components\services\saddr\"
//        -I "C:\Users\ljuic\Desktop\New
//        folder\ZigBeeCoordinator\Projects\zstack\Samples\GenericApp\CC2530DB\..\..\..\..\..\Components\services\sdata\"
//        -I "C:\Users\ljuic\Desktop\New
//        folder\ZigBeeCoordinator\Projects\zstack\Samples\GenericApp\CC2530DB\..\..\..\..\..\Components\stack\af\"
//        -I "C:\Users\ljuic\Desktop\New
//        folder\ZigBeeCoordinator\Projects\zstack\Samples\GenericApp\CC2530DB\..\..\..\..\..\Components\stack\nwk\"
//        -I "C:\Users\ljuic\Desktop\New
//        folder\ZigBeeCoordinator\Projects\zstack\Samples\GenericApp\CC2530DB\..\..\..\..\..\Components\stack\sapi\"
//        -I "C:\Users\ljuic\Desktop\New
//        folder\ZigBeeCoordinator\Projects\zstack\Samples\GenericApp\CC2530DB\..\..\..\..\..\Components\stack\sec\"
//        -I "C:\Users\ljuic\Desktop\New
//        folder\ZigBeeCoordinator\Projects\zstack\Samples\GenericApp\CC2530DB\..\..\..\..\..\Components\stack\sys\"
//        -I "C:\Users\ljuic\Desktop\New
//        folder\ZigBeeCoordinator\Projects\zstack\Samples\GenericApp\CC2530DB\..\..\..\..\..\Components\stack\zdo\"
//        -I "C:\Users\ljuic\Desktop\New
//        folder\ZigBeeCoordinator\Projects\zstack\Samples\GenericApp\CC2530DB\..\..\..\..\..\Components\zmac\"
//        -I "C:\Users\ljuic\Desktop\New
//        folder\ZigBeeCoordinator\Projects\zstack\Samples\GenericApp\CC2530DB\..\..\..\..\..\Components\zmac\f8w\"
//        -I "C:\Users\ljuic\Desktop\New
//        folder\ZigBeeCoordinator\Projects\zstack\Samples\GenericApp\CC2530DB\..\..\..\..\..\Components\dll\"
//        -Ohz --require_prototypes
//    List file          =  
//        C:\Users\ljuic\Desktop\New
//        folder\ZigBeeCoordinator\Projects\zstack\Samples\GenericApp\CC2530DB\CoordinatorEB\List\hal_uart.s51
//
///////////////////////////////////////////////////////////////////////////////

        NAME hal_uart

        RTMODEL "__SystemLibrary", "CLib"
        RTMODEL "__calling_convention", "xdata_reentrant"
        RTMODEL "__code_model", "banked"
        RTMODEL "__core", "plain"
        RTMODEL "__data_model", "large"
        RTMODEL "__dptr_size", "16"
        RTMODEL "__extended_stack", "disabled"
        RTMODEL "__location_for_constants", "data"
        RTMODEL "__number_of_dptrs", "1"
        RTMODEL "__rt_version", "1"

        RSEG DOVERLAY:DATA:NOROOT(0)
        RSEG IOVERLAY:IDATA:NOROOT(0)
        RSEG ISTACK:IDATA:NOROOT(0)
        RSEG PSTACK:XDATA:NOROOT(0)
        RSEG XSTACK:XDATA:NOROOT(0)

        EXTERN ?BANKED_ENTER_XDATA
        EXTERN ?BANKED_LEAVE_XDATA
        EXTERN ?BDISPATCH
        EXTERN ?BRET
        EXTERN ?INTERRUPT_ENTER_XSP
        EXTERN ?INTERRUPT_LEAVE_XSP
        EXTERN __INIT_XDATA_Z

        PUBLIC `??HalUARTInit::?relay`
        FUNCTION `??HalUARTInit::?relay`,0203H
        PUBLIC `??HalUARTOpen::?relay`
        FUNCTION `??HalUARTOpen::?relay`,0203H
        PUBLIC `??HalUARTPoll::?relay`
        FUNCTION `??HalUARTPoll::?relay`,0203H
        PUBLIC `??HalUARTRead::?relay`
        FUNCTION `??HalUARTRead::?relay`,0203H
        PUBLIC `??HalUARTReadISR::?relay`
        FUNCTION `??HalUARTReadISR::?relay`,0203H
        PUBLIC `??HalUARTResume::?relay`
        FUNCTION `??HalUARTResume::?relay`,0203H
        PUBLIC `??HalUARTSuspend::?relay`
        FUNCTION `??HalUARTSuspend::?relay`,0203H
        PUBLIC `??HalUARTWrite::?relay`
        FUNCTION `??HalUARTWrite::?relay`,0203H
        PUBLIC `??HalUARTWriteISR::?relay`
        FUNCTION `??HalUARTWriteISR::?relay`,0203H
        PUBLIC `??Hal_UART_RxBufLen::?relay`
        FUNCTION `??Hal_UART_RxBufLen::?relay`,0203H
        PUBLIC `??halProcessUartInterrupt::?relay`
        FUNCTION `??halProcessUartInterrupt::?relay`,0203H
        PUBWEAK `??halUart1RxIsr::??INTVEC 27`
        PUBWEAK `??halUart1TxIsr::??INTVEC 115`
        PUBWEAK ADCCFG
        PUBWEAK CLKCONCMD
        PUBLIC HalUARTInit
        FUNCTION HalUARTInit,0203H
        ARGFRAME XSTACK, 0, STACK
        LOCFRAME ISTACK, 2, STACK
        PUBLIC HalUARTOpen
        FUNCTION HalUARTOpen,0203H
        ARGFRAME XSTACK, 0, STACK
        LOCFRAME ISTACK, 2, STACK
        PUBLIC HalUARTPoll
        FUNCTION HalUARTPoll,0203H
        ARGFRAME XSTACK, 0, STACK
        PUBLIC HalUARTRead
        FUNCTION HalUARTRead,021203H
        ARGFRAME XSTACK, 0, STACK
        LOCFRAME XSTACK, 9, STACK
        PUBLIC HalUARTReadISR
        FUNCTION HalUARTReadISR,0203H
        ARGFRAME XSTACK, 9, STACK
        ARGFRAME IOVERLAY, 0, STATIC
        ARGFRAME DOVERLAY, 0, STATIC
        LOCFRAME ISTACK, 1, STACK
        LOCFRAME XSTACK, 9, STACK
        PUBLIC HalUARTResume
        FUNCTION HalUARTResume,0203H
        ARGFRAME XSTACK, 0, STACK
        PUBLIC HalUARTSuspend
        FUNCTION HalUARTSuspend,0203H
        ARGFRAME XSTACK, 0, STACK
        PUBLIC HalUARTWrite
        FUNCTION HalUARTWrite,021203H
        ARGFRAME XSTACK, 0, STACK
        LOCFRAME XSTACK, 9, STACK
        PUBLIC HalUARTWriteISR
        FUNCTION HalUARTWriteISR,0203H
        ARGFRAME XSTACK, 9, STACK
        ARGFRAME IOVERLAY, 0, STATIC
        ARGFRAME DOVERLAY, 0, STATIC
        LOCFRAME ISTACK, 1, STACK
        LOCFRAME XSTACK, 9, STACK
        PUBLIC Hal_UART_RxBufLen
        FUNCTION Hal_UART_RxBufLen,0203H
        ARGFRAME XSTACK, 0, STACK
        LOCFRAME ISTACK, 2, STACK
        PUBWEAK IEN2
        PUBWEAK P1SEL
        PUBWEAK P2DIR
        PUBWEAK P2INP
        PUBWEAK PERCFG
        PUBLIC RX_BUFFER
        PUBWEAK ST0
        PUBLIC TX_BUFFER
        PUBWEAK U1BAUD
        PUBWEAK U1DBUF
        PUBWEAK U1GCR
        PUBWEAK U1UCR
        PUBWEAK _A_IEN0
        PUBWEAK _A_IRCON2
        PUBWEAK _A_U1CSR
        PUBLIC halProcessUartInterrupt
        FUNCTION halProcessUartInterrupt,021203H
        ARGFRAME XSTACK, 14, STACK
        ARGFRAME IOVERLAY, 0, STATIC
        ARGFRAME DOVERLAY, 0, STATIC
        LOCFRAME ISTACK, 2, STACK
        PUBLIC halUart1RxIsr
        FUNCTION halUart1RxIsr,021233H
        ARGFRAME XSTACK, 0, STACK
        LOCFRAME ISTACK, 1, STACK
        LOCFRAME XSTACK, 14, STACK
        PUBLIC halUart1TxIsr
        FUNCTION halUart1TxIsr,0233H
        ARGFRAME XSTACK, 0, STACK
        LOCFRAME ISTACK, 6, STACK
        
          CFI Names cfiNames0
          CFI StackFrame CFA_SP SP IDATA
          CFI StackFrame CFA_PSP16 PSP16 XDATA
          CFI StackFrame CFA_XSP16 XSP16 XDATA
          CFI StaticOverlayFrame CFA_IOVERLAY IOVERLAY
          CFI StaticOverlayFrame CFA_DOVERLAY DOVERLAY
          CFI Resource `PSW.CY`:1, `B.BR0`:1, `B.BR1`:1, `B.BR2`:1, `B.BR3`:1
          CFI Resource `B.BR4`:1, `B.BR5`:1, `B.BR6`:1, `B.BR7`:1, `VB.BR8`:1
          CFI Resource `VB.BR9`:1, `VB.BR10`:1, `VB.BR11`:1, `VB.BR12`:1
          CFI Resource `VB.BR13`:1, `VB.BR14`:1, `VB.BR15`:1, VB:8, B:8, A:8
          CFI Resource PSW:8, DPL0:8, DPH0:8, R0:8, R1:8, R2:8, R3:8, R4:8, R5:8
          CFI Resource R6:8, R7:8, V0:8, V1:8, V2:8, V3:8, V4:8, V5:8, V6:8, V7:8
          CFI Resource V8:8, V9:8, V10:8, V11:8, V12:8, V13:8, V14:8, V15:8, SP:8
          CFI Resource PSPH:8, PSPL:8, PSP16:16, XSPH:8, XSPL:8, XSP16:16
          CFI VirtualResource ?RET:24
          CFI Resource ?BRET_EXT:8
          CFI VirtualResource ?RET_HIGH:8, ?RET_LOW:8
          CFI ResourceParts PSP16 PSPH, PSPL
          CFI ResourceParts XSP16 XSPH, XSPL
          CFI ResourceParts ?RET ?BRET_EXT, ?RET_HIGH, ?RET_LOW
          CFI EndNames cfiNames0
        
          CFI Common cfiCommon0 Using cfiNames0
          CFI CodeAlign 1
          CFI DataAlign -1
          CFI ReturnAddress ?RET CODE
          CFI CFA_DOVERLAY Used
          CFI CFA_IOVERLAY Used
          CFI CFA_SP SP+-3
          CFI CFA_PSP16 PSP16+0
          CFI CFA_XSP16 XSP16+0
          CFI `PSW.CY` SameValue
          CFI `B.BR0` SameValue
          CFI `B.BR1` SameValue
          CFI `B.BR2` SameValue
          CFI `B.BR3` SameValue
          CFI `B.BR4` SameValue
          CFI `B.BR5` SameValue
          CFI `B.BR6` SameValue
          CFI `B.BR7` SameValue
          CFI `VB.BR8` SameValue
          CFI `VB.BR9` SameValue
          CFI `VB.BR10` SameValue
          CFI `VB.BR11` SameValue
          CFI `VB.BR12` SameValue
          CFI `VB.BR13` SameValue
          CFI `VB.BR14` SameValue
          CFI `VB.BR15` SameValue
          CFI VB SameValue
          CFI B Undefined
          CFI A Undefined
          CFI PSW SameValue
          CFI DPL0 SameValue
          CFI DPH0 SameValue
          CFI R0 Undefined
          CFI R1 Undefined
          CFI R2 Undefined
          CFI R3 Undefined
          CFI R4 Undefined
          CFI R5 Undefined
          CFI R6 SameValue
          CFI R7 SameValue
          CFI V0 SameValue
          CFI V1 SameValue
          CFI V2 SameValue
          CFI V3 SameValue
          CFI V4 SameValue
          CFI V5 SameValue
          CFI V6 SameValue
          CFI V7 SameValue
          CFI V8 SameValue
          CFI V9 SameValue
          CFI V10 SameValue
          CFI V11 SameValue
          CFI V12 SameValue
          CFI V13 SameValue
          CFI V14 SameValue
          CFI V15 SameValue
          CFI PSPH Undefined
          CFI PSPL Undefined
          CFI XSPH Undefined
          CFI XSPL Undefined
          CFI ?RET Concat
          CFI ?BRET_EXT Frame(CFA_SP, 3)
          CFI ?RET_HIGH Frame(CFA_SP, 2)
          CFI ?RET_LOW Frame(CFA_SP, 1)
          CFI EndCommon cfiCommon0
        
        
          CFI Common cfiCommon1 Using cfiNames0
          CFI CodeAlign 1
          CFI DataAlign -1
          CFI ReturnAddress ?RET CODE
          CFI CFA_DOVERLAY Used
          CFI CFA_IOVERLAY Used
          CFI CFA_SP SP+-2
          CFI CFA_PSP16 PSP16+0
          CFI CFA_XSP16 XSP16+0
          CFI `PSW.CY` SameValue
          CFI `B.BR0` SameValue
          CFI `B.BR1` SameValue
          CFI `B.BR2` SameValue
          CFI `B.BR3` SameValue
          CFI `B.BR4` SameValue
          CFI `B.BR5` SameValue
          CFI `B.BR6` SameValue
          CFI `B.BR7` SameValue
          CFI `VB.BR8` SameValue
          CFI `VB.BR9` SameValue
          CFI `VB.BR10` SameValue
          CFI `VB.BR11` SameValue
          CFI `VB.BR12` SameValue
          CFI `VB.BR13` SameValue
          CFI `VB.BR14` SameValue
          CFI `VB.BR15` SameValue
          CFI VB SameValue
          CFI B SameValue
          CFI A SameValue
          CFI PSW SameValue
          CFI DPL0 SameValue
          CFI DPH0 SameValue
          CFI R0 SameValue
          CFI R1 SameValue
          CFI R2 SameValue
          CFI R3 SameValue
          CFI R4 SameValue
          CFI R5 SameValue
          CFI R6 SameValue
          CFI R7 SameValue
          CFI V0 SameValue
          CFI V1 SameValue
          CFI V2 SameValue
          CFI V3 SameValue
          CFI V4 SameValue
          CFI V5 SameValue
          CFI V6 SameValue
          CFI V7 SameValue
          CFI V8 SameValue
          CFI V9 SameValue
          CFI V10 SameValue
          CFI V11 SameValue
          CFI V12 SameValue
          CFI V13 SameValue
          CFI V14 SameValue
          CFI V15 SameValue
          CFI PSPH Undefined
          CFI PSPL Undefined
          CFI XSPH Undefined
          CFI XSPL Undefined
          CFI ?RET Concat
          CFI ?BRET_EXT SameValue
          CFI ?RET_HIGH Frame(CFA_SP, 2)
          CFI ?RET_LOW Frame(CFA_SP, 1)
          CFI EndCommon cfiCommon1
        
osal_set_event      SYMBOL "osal_set_event"
`??osal_set_event::?relay` SYMBOL "?relay", osal_set_event
HalUARTInit         SYMBOL "HalUARTInit"
`??HalUARTInit::?relay` SYMBOL "?relay", HalUARTInit
HalUARTOpen         SYMBOL "HalUARTOpen"
`??HalUARTOpen::?relay` SYMBOL "?relay", HalUARTOpen
HalUARTPoll         SYMBOL "HalUARTPoll"
`??HalUARTPoll::?relay` SYMBOL "?relay", HalUARTPoll
HalUARTRead         SYMBOL "HalUARTRead"
`??HalUARTRead::?relay` SYMBOL "?relay", HalUARTRead
HalUARTReadISR      SYMBOL "HalUARTReadISR"
`??HalUARTReadISR::?relay` SYMBOL "?relay", HalUARTReadISR
HalUARTResume       SYMBOL "HalUARTResume"
`??HalUARTResume::?relay` SYMBOL "?relay", HalUARTResume
HalUARTSuspend      SYMBOL "HalUARTSuspend"
`??HalUARTSuspend::?relay` SYMBOL "?relay", HalUARTSuspend
HalUARTWrite        SYMBOL "HalUARTWrite"
`??HalUARTWrite::?relay` SYMBOL "?relay", HalUARTWrite
HalUARTWriteISR     SYMBOL "HalUARTWriteISR"
`??HalUARTWriteISR::?relay` SYMBOL "?relay", HalUARTWriteISR
Hal_UART_RxBufLen   SYMBOL "Hal_UART_RxBufLen"
`??Hal_UART_RxBufLen::?relay` SYMBOL "?relay", Hal_UART_RxBufLen
halProcessUartInterrupt SYMBOL "halProcessUartInterrupt"
`??halProcessUartInterrupt::?relay` SYMBOL "?relay", halProcessUartInterrupt
halUart1RxIsr       SYMBOL "halUart1RxIsr"
`??halUart1RxIsr::??INTVEC 27` SYMBOL "??INTVEC 27", halUart1RxIsr
halUart1TxIsr       SYMBOL "halUart1TxIsr"
`??halUart1TxIsr::??INTVEC 115` SYMBOL "??INTVEC 115", halUart1TxIsr

        EXTERN `??osal_set_event::?relay`
        FUNCTION `??osal_set_event::?relay`,00H
        EXTERN GenericApp_TaskID
        EXTERN osal_set_event
        FUNCTION osal_set_event,0202H
        ARGFRAME ISTACK, 2, STACK
        ARGFRAME PSTACK, 0, STACK
        ARGFRAME XSTACK, 0, STACK
        ARGFRAME IOVERLAY, 0, STATIC
        ARGFRAME DOVERLAY, 0, STATIC
        EXTERN uartConfig

// C:\Users\ljuic\Desktop\New folder\ZigBeeCoordinator\Components\hal\target\CC2530EB\hal_uart.c
//    1 /**************************************************************************************************
//    2   Filename:       _hal_uart.c
//    3   Revised:        $Date: 2009-06-12 09:16:43 -0700 (Fri, 12 Jun 2009) $
//    4   Revision:       $Revision: 20142 $
//    5 
//    6   Description: This file contains the interface to the H/W UART driver.
//    7 
//    8 
//    9   Copyright 2006-2009 Texas Instruments Incorporated. All rights reserved.
//   10 
//   11   IMPORTANT: Your use of this Software is limited to those specific rights
//   12   granted under the terms of a software license agreement between the user
//   13   who downloaded the software, his/her employer (which must be your employer)
//   14   and Texas Instruments Incorporated (the "License").  You may not use this
//   15   Software unless you agree to abide by the terms of the License. The License
//   16   limits your use, and you acknowledge, that the Software may not be modified,
//   17   copied or distributed unless embedded on a Texas Instruments microcontroller
//   18   or used solely and exclusively in conjunction with a Texas Instruments radio
//   19   frequency transceiver, which is integrated into your product.  Other than for
//   20   the foregoing purpose, you may not use, reproduce, copy, prepare derivative
//   21   works of, modify, distribute, perform, display or sell this Software and/or
//   22   its documentation for any purpose.
//   23 
//   24   YOU FURTHER ACKNOWLEDGE AND AGREE THAT THE SOFTWARE AND DOCUMENTATION ARE
//   25   PROVIDED “AS IS” WITHOUT WARRANTY OF ANY KIND, EITHER EXPRESS OR IMPLIED,
//   26   INCLUDING WITHOUT LIMITATION, ANY WARRANTY OF MERCHANTABILITY, TITLE,
//   27   NON-INFRINGEMENT AND FITNESS FOR A PARTICULAR PURPOSE. IN NO EVENT SHALL
//   28   TEXAS INSTRUMENTS OR ITS LICENSORS BE LIABLE OR OBLIGATED UNDER CONTRACT,
//   29   NEGLIGENCE, STRICT LIABILITY, CONTRIBUTION, BREACH OF WARRANTY, OR OTHER
//   30   LEGAL EQUITABLE THEORY ANY DIRECT OR INDIRECT DAMAGES OR EXPENSES
//   31   INCLUDING BUT NOT LIMITED TO ANY INCIDENTAL, SPECIAL, INDIRECT, PUNITIVE
//   32   OR CONSEQUENTIAL DAMAGES, LOST PROFITS OR LOST DATA, COST OF PROCUREMENT
//   33   OF SUBSTITUTE GOODS, TECHNOLOGY, SERVICES, OR ANY CLAIMS BY THIRD PARTIES
//   34   (INCLUDING BUT NOT LIMITED TO ANY DEFENSE THEREOF), OR OTHER SIMILAR COSTS.
//   35 
//   36   Should you have any questions regarding your right to use this Software,
//   37   contact Texas Instruments Incorporated at www.TI.com.
//   38 **************************************************************************************************/
//   39 
//   40 /*********************************************************************
//   41  * INCLUDES
//   42  */
//   43 ////////////////////////////////////////////////////////////////////////////////////// 
//   44 //#include "hal_drivers.h"
//   45 #include "GenericApp.h"
//   46 #include "OSAL.h"
//   47 ////////////////////////////////////////////////////////////////////////////////////// 
//   48 
//   49 #include "hal_board_cfg.h"

        ASEGN SFR_AN:DATA:NOROOT,095H
// unsigned char volatile __sfr ST0
ST0:
        DATA8
        DS 1

        ASEGN SFR_AN:DATA:NOROOT,09aH
// unsigned char volatile __sfr IEN2
IEN2:
        DATA8
        DS 1

        ASEGN SFR_AN:DATA:NOROOT,0a8H
// union <unnamed> volatile __sfr _A_IEN0
_A_IEN0:
        DATA8
        DS 1

        ASEGN SFR_AN:DATA:NOROOT,0c6H
// unsigned char volatile __sfr CLKCONCMD
CLKCONCMD:
        DATA8
        DS 1

        ASEGN SFR_AN:DATA:NOROOT,0e8H
// union <unnamed> volatile __sfr _A_IRCON2
_A_IRCON2:
        DATA8
        DS 1

        ASEGN SFR_AN:DATA:NOROOT,0f1H
// unsigned char volatile __sfr PERCFG
PERCFG:
        DATA8
        DS 1

        ASEGN SFR_AN:DATA:NOROOT,0f2H
// unsigned char volatile __sfr ADCCFG
ADCCFG:
        DATA8
        DS 1

        ASEGN SFR_AN:DATA:NOROOT,0f4H
// unsigned char volatile __sfr P1SEL
P1SEL:
        DATA8
        DS 1

        ASEGN SFR_AN:DATA:NOROOT,0f7H
// unsigned char volatile __sfr P2INP
P2INP:
        DATA8
        DS 1

        ASEGN SFR_AN:DATA:NOROOT,0f8H
// union <unnamed> volatile __sfr _A_U1CSR
_A_U1CSR:
        DATA8
        DS 1

        ASEGN SFR_AN:DATA:NOROOT,0f9H
// unsigned char volatile __sfr U1DBUF
U1DBUF:
        DATA8
        DS 1

        ASEGN SFR_AN:DATA:NOROOT,0faH
// unsigned char volatile __sfr U1BAUD
U1BAUD:
        DATA8
        DS 1

        ASEGN SFR_AN:DATA:NOROOT,0fbH
// unsigned char volatile __sfr U1UCR
U1UCR:
        DATA8
        DS 1

        ASEGN SFR_AN:DATA:NOROOT,0fcH
// unsigned char volatile __sfr U1GCR
U1GCR:
        DATA8
        DS 1

        ASEGN SFR_AN:DATA:NOROOT,0ffH
// unsigned char volatile __sfr P2DIR
P2DIR:
        DATA8
        DS 1
//   50 #include "hal_defs.h"
//   51 #include "hal_types.h"
//   52 #include "hal_uart.h"
//   53 
//   54 /*********************************************************************
//   55  * MACROS
//   56  */
//   57 
//   58 /*********************************************************************
//   59  * TYPEDEFS
//   60  */
//   61 
//   62 /*********************************************************************
//   63  * CONSTANTS
//   64  */
//   65 
//   66 /*********************************************************************
//   67  * GLOBAL VARIABLES
//   68  */
//   69 extern halUARTCfg_t uartConfig;
//   70 

        RSEG XDATA_Z:XDATA:NOROOT(0)
        DATA8
//   71 uint8 TX_BUFFER[128];
TX_BUFFER:
        DS 128
        REQUIRE __INIT_XDATA_Z

        RSEG XDATA_Z:XDATA:NOROOT(0)
        DATA8
//   72 uint8 RX_BUFFER[128];
RX_BUFFER:
        DS 128
        REQUIRE __INIT_XDATA_Z
//   73 
//   74 
//   75 /*********************************************************************
//   76  * GLOBAL FUNCTIONS
//   77  */
//   78 
//   79 /*********************************************************************
//   80  * LOCAL VARIABLES
//   81  */
//   82 
//   83 /*********************************************************************
//   84  * LOCAL FUNCTIONS
//   85  */
//   86 
//   87 #if HAL_UART_DMA
//   88 #include "_hal_uart_dma.c"
//   89 #endif
//   90 #if HAL_UART_ISR
//   91 #include "_hal_uart_isr.c"

        RSEG XDATA_Z:XDATA:NOROOT(0)
        DATA8
// static uartISRCfg_t isrCfg
isrCfg:
        DS 265
        REQUIRE __INIT_XDATA_Z

        RSEG BANKED_CODE:HUGECODE:NOROOT(0)
// __banked_func __xdata_reentrant uint16 HalUARTReadISR(uint8 *, uint16)
HalUARTReadISR:
          CFI Block cfiBlock0 Using cfiCommon0
          CFI Function HalUARTReadISR
        CODE
        MOV     A,#-0x9
        LCALL   ?BANKED_ENTER_XDATA
          CFI DPH0 load(1, XDATA, add(CFA_XSP16, literal(-1)))
          CFI DPL0 load(1, XDATA, add(CFA_XSP16, literal(-2)))
          CFI ?BRET_EXT load(1, XDATA, add(CFA_XSP16, literal(-3)))
          CFI ?RET_HIGH load(1, XDATA, add(CFA_XSP16, literal(-4)))
          CFI ?RET_LOW load(1, XDATA, add(CFA_XSP16, literal(-5)))
          CFI R7 load(1, XDATA, add(CFA_XSP16, literal(-6)))
          CFI V0 load(1, XDATA, add(CFA_XSP16, literal(-7)))
          CFI VB load(1, XDATA, add(CFA_XSP16, literal(-8)))
          CFI R6 load(1, XDATA, add(CFA_XSP16, literal(-9)))
          CFI CFA_SP SP+0
          CFI CFA_XSP16 add(XSP16, 9)
        ; Saved register size: 9
        ; Auto size: 0
        MOV     R0,#0x0
        MOV     R1,#0x0
        SJMP    ??HalUARTReadISR_0
??HalUARTReadISR_1:
        MOV     A,#isrCfg & 0xff
        ADD     A,R6
        MOV     DPL,A
        CLR     A
        ADDC    A,#(isrCfg >> 8) & 0xff
        MOV     DPH,A
        MOVX    A,@DPTR
        MOV     DPL,R2
        MOV     DPH,R3
        MOVX    @DPTR,A
        MOV     DPTR,#isrCfg + 128
        MOVX    A,@DPTR
        INC     A
        LCALL   ?Subroutine2 & 0xFFFF
??CrossCallReturnLabel_0:
        CLR     C
        SUBB    A,#-0x80
        JC      ??HalUARTReadISR_2
        MOV     DPTR,#isrCfg + 128
        CLR     A
        MOVX    @DPTR,A
??HalUARTReadISR_2:
        INC     R0
        MOV     A,R0
        JNZ     ??HalUARTReadISR_0
        INC     R1
??HalUARTReadISR_0:
        MOV     DPTR,#isrCfg + 128
        MOVX    A,@DPTR
        MOV     R6,A
        INC     DPTR
        MOVX    A,@DPTR
        XRL     A,R6
        JZ      ??HalUARTReadISR_3
        CLR     C
        MOV     A,R0
        SUBB    A,R4
        MOV     A,R1
        SUBB    A,R5
        JC      ??HalUARTReadISR_1
??HalUARTReadISR_3:
        MOV     DPTR,#isrCfg + 128
        CLR     A
        MOVX    @DPTR,A
        INC     DPTR
        MOVX    @DPTR,A
        MOV     A,R0
        MOV     R2,A
        MOV     A,R1
        MOV     R3,A
        LJMP    ?Subroutine0 & 0xFFFF
          CFI EndBlock cfiBlock0

        RSEG BANKED_CODE:HUGECODE:NOROOT(0)
// __banked_func __xdata_reentrant uint16 HalUARTWriteISR(uint8 *, uint16)
HalUARTWriteISR:
          CFI Block cfiBlock1 Using cfiCommon0
          CFI Function HalUARTWriteISR
        CODE
        MOV     A,#-0x9
        LCALL   ?BANKED_ENTER_XDATA
          CFI DPH0 load(1, XDATA, add(CFA_XSP16, literal(-1)))
          CFI DPL0 load(1, XDATA, add(CFA_XSP16, literal(-2)))
          CFI ?BRET_EXT load(1, XDATA, add(CFA_XSP16, literal(-3)))
          CFI ?RET_HIGH load(1, XDATA, add(CFA_XSP16, literal(-4)))
          CFI ?RET_LOW load(1, XDATA, add(CFA_XSP16, literal(-5)))
          CFI R7 load(1, XDATA, add(CFA_XSP16, literal(-6)))
          CFI V0 load(1, XDATA, add(CFA_XSP16, literal(-7)))
          CFI VB load(1, XDATA, add(CFA_XSP16, literal(-8)))
          CFI R6 load(1, XDATA, add(CFA_XSP16, literal(-9)))
          CFI CFA_SP SP+0
          CFI CFA_XSP16 add(XSP16, 9)
        ; Saved register size: 9
        ; Auto size: 0
        MOV     DPTR,#isrCfg + 260
        MOVX    A,@DPTR
        MOV     R0,A
        INC     DPTR
        MOVX    A,@DPTR
        CLR     C
        SUBB    A,R0
        MOV     DPTR,#isrCfg + 260
        MOVX    A,@DPTR
        MOV     R6,A
        INC     DPTR
        MOVX    A,@DPTR
        MOV     R0,A
        MOV     A,R6
        JNC     ??HalUARTWriteISR_0
        CLR     C
        SUBB    A,R0
        MOV     R0,A
        SUBB    A,0xE0 /* A   */
        MOV     R1,A
        MOV     A,R0
        ADD     A,#-0x1
        DEC     R0
        MOV     A,R1
        ADDC    A,#-0x1
        MOV     R1,A
        SJMP    ??HalUARTWriteISR_1
??HalUARTWriteISR_0:
        CLR     C
        SUBB    A,R0
        MOV     R0,A
        SUBB    A,0xE0 /* A   */
        MOV     R1,A
        MOV     A,R0
        ADD     A,#0x7f
        MOV     R0,A
        JNC     ??HalUARTWriteISR_1
        INC     R1
??HalUARTWriteISR_1:
        CLR     C
        MOV     A,R0
        SUBB    A,R4
        MOV     A,R1
        SUBB    A,R5
        JNC     ??HalUARTWriteISR_2
        MOV     R2,#0x0
        MOV     R3,#0x0
        SJMP    ??HalUARTWriteISR_3
??HalUARTWriteISR_2:
        MOV     R0,#0x0
        MOV     R1,#0x0
        SJMP    ??HalUARTWriteISR_4
??HalUARTWriteISR_5:
        MOVX    A,@DPTR
        INC     A
??HalUARTWriteISR_6:
        MOVX    @DPTR,A
        ORL     0x9a,#0x8
        INC     R0
        MOV     A,R0
        JNZ     ??HalUARTWriteISR_4
        INC     R1
??HalUARTWriteISR_4:
        CLR     C
        MOV     A,R0
        SUBB    A,R4
        MOV     A,R1
        SUBB    A,R5
        JNC     ??HalUARTWriteISR_7
        MOV     DPL,R2
        MOV     DPH,R3
        MOVX    A,@DPTR
        PUSH    A
          CFI CFA_SP SP+-1
        MOV     DPTR,#isrCfg + 261
        MOVX    A,@DPTR
        MOV     R6,A
        MOV     A,#(isrCfg + 132) & 0xff
        ADD     A,R6
        MOV     DPL,A
        CLR     A
        ADDC    A,#((isrCfg + 132) >> 8) & 0xff
        MOV     DPH,A
        POP     A
          CFI CFA_SP SP+0
        LCALL   ?Subroutine2 & 0xFFFF
??CrossCallReturnLabel_1:
        MOV     DPTR,#isrCfg + 262
        CLR     A
        MOVX    @DPTR,A
        MOV     DPTR,#isrCfg + 261
        MOVX    A,@DPTR
        CLR     C
        SUBB    A,#0x7f
        JC      ??HalUARTWriteISR_5
        CLR     A
        SJMP    ??HalUARTWriteISR_6
??HalUARTWriteISR_7:
        MOV     A,R0
        MOV     R2,A
        MOV     A,R1
        MOV     R3,A
??HalUARTWriteISR_3:
        LJMP    ?Subroutine0 & 0xFFFF
          CFI EndBlock cfiBlock1
        REQUIRE IEN2

        RSEG BANKED_CODE:HUGECODE:NOROOT(0)
?Subroutine2:
          CFI Block cfiCond2 Using cfiCommon0
          CFI Function HalUARTReadISR
          CFI Conditional ??CrossCallReturnLabel_0
          CFI R6 load(1, XDATA, add(CFA_XSP16, literal(-9)))
          CFI VB load(1, XDATA, add(CFA_XSP16, literal(-8)))
          CFI V0 load(1, XDATA, add(CFA_XSP16, literal(-7)))
          CFI R7 load(1, XDATA, add(CFA_XSP16, literal(-6)))
          CFI ?RET_LOW load(1, XDATA, add(CFA_XSP16, literal(-5)))
          CFI ?RET_HIGH load(1, XDATA, add(CFA_XSP16, literal(-4)))
          CFI ?BRET_EXT load(1, XDATA, add(CFA_XSP16, literal(-3)))
          CFI DPL0 load(1, XDATA, add(CFA_XSP16, literal(-2)))
          CFI DPH0 load(1, XDATA, add(CFA_XSP16, literal(-1)))
          CFI CFA_SP SP+-2
          CFI CFA_XSP16 add(XSP16, 9)
          CFI Block cfiCond3 Using cfiCommon0
          CFI (cfiCond3) Function HalUARTWriteISR
          CFI (cfiCond3) Conditional ??CrossCallReturnLabel_1
          CFI (cfiCond3) R6 load(1, XDATA, add(CFA_XSP16, literal(-9)))
          CFI (cfiCond3) VB load(1, XDATA, add(CFA_XSP16, literal(-8)))
          CFI (cfiCond3) V0 load(1, XDATA, add(CFA_XSP16, literal(-7)))
          CFI (cfiCond3) R7 load(1, XDATA, add(CFA_XSP16, literal(-6)))
          CFI (cfiCond3) ?RET_LOW load(1, XDATA, add(CFA_XSP16, literal(-5)))
          CFI (cfiCond3) ?RET_HIGH load(1, XDATA, add(CFA_XSP16, literal(-4)))
          CFI (cfiCond3) ?BRET_EXT load(1, XDATA, add(CFA_XSP16, literal(-3)))
          CFI (cfiCond3) DPL0 load(1, XDATA, add(CFA_XSP16, literal(-2)))
          CFI (cfiCond3) DPH0 load(1, XDATA, add(CFA_XSP16, literal(-1)))
          CFI (cfiCond3) CFA_SP SP+-2
          CFI (cfiCond3) CFA_XSP16 add(XSP16, 9)
          CFI Block cfiPicker4 Using cfiCommon1
          CFI (cfiPicker4) NoFunction
          CFI (cfiPicker4) Picker
        MOVX    @DPTR,A
        MOV     DPL,R2
        MOV     DPH,R3
        INC     DPTR
        MOV     R2,DPL
        MOV     R3,DPH
        RET
          CFI EndBlock cfiCond2
          CFI EndBlock cfiCond3
          CFI EndBlock cfiPicker4

        RSEG NEAR_CODE:CODE:NOROOT(0)
// __near_func __xdata_reentrant __interrupt void halUart1RxIsr(void)
halUart1RxIsr:
          CFI Block cfiBlock5 Using cfiCommon1
          CFI Function halUart1RxIsr
        CODE
        FUNCALL halUart1RxIsr, halProcessUartInterrupt
        LOCFRAME ISTACK, 0, STACK
        LOCFRAME PSTACK, 0, STACK
        LOCFRAME XSTACK, 14, STACK
        LOCFRAME IOVERLAY, 0, STATIC
        LOCFRAME DOVERLAY, 0, STATIC
        ARGFRAME ISTACK, 0, STACK
        ARGFRAME PSTACK, 0, STACK
        ARGFRAME XSTACK, 14, STACK
        ARGFRAME IOVERLAY, 0, STATIC
        ARGFRAME DOVERLAY, 0, STATIC
        PUSH    A
          CFI A Frame(CFA_SP, 3)
          CFI CFA_SP SP+-3
        MOV     A,#-0xe
        LCALL   ?INTERRUPT_ENTER_XSP
          CFI B load(1, XDATA, add(CFA_XSP16, literal(-1)))
          CFI VB load(1, XDATA, add(CFA_XSP16, literal(-2)))
          CFI PSW load(1, XDATA, add(CFA_XSP16, literal(-3)))
          CFI DPL0 load(1, XDATA, add(CFA_XSP16, literal(-4)))
          CFI DPH0 load(1, XDATA, add(CFA_XSP16, literal(-5)))
          CFI R7 load(1, XDATA, add(CFA_XSP16, literal(-6)))
          CFI R6 load(1, XDATA, add(CFA_XSP16, literal(-7)))
          CFI R5 load(1, XDATA, add(CFA_XSP16, literal(-8)))
          CFI R4 load(1, XDATA, add(CFA_XSP16, literal(-9)))
          CFI V0 load(1, XDATA, add(CFA_XSP16, literal(-10)))
          CFI R3 load(1, XDATA, add(CFA_XSP16, literal(-11)))
          CFI R2 load(1, XDATA, add(CFA_XSP16, literal(-12)))
          CFI R1 load(1, XDATA, add(CFA_XSP16, literal(-13)))
          CFI R0 load(1, XDATA, add(CFA_XSP16, literal(-14)))
          CFI CFA_XSP16 add(XSP16, 14)
        ; Saved register size: 14
        ; Auto size: 0
        MOV     R0,0xf9+0x0
        MOV     A,R0
        PUSH    A
          CFI CFA_SP SP+-4
        MOV     DPTR,#isrCfg + 129
        MOVX    A,@DPTR
        MOV     R0,A
        MOV     A,#isrCfg & 0xff
        ADD     A,R0
        MOV     DPL,A
        CLR     A
        ADDC    A,#(isrCfg >> 8) & 0xff
        MOV     DPH,A
        POP     A
          CFI CFA_SP SP+-3
        MOVX    @DPTR,A
        MOV     DPTR,#isrCfg + 128
        MOVX    A,@DPTR
        MOV     R0,A
        INC     DPTR
        MOVX    A,@DPTR
        XRL     A,R0
        JNZ     ??halUart1RxIsr_0
        MOV     A,0x95
        MOV     DPTR,#isrCfg + 131
        MOVX    @DPTR,A
??halUart1RxIsr_0:
        MOV     DPTR,#isrCfg + 129
        MOVX    A,@DPTR
        INC     A
        MOVX    @DPTR,A
        CLR     C
        SUBB    A,#-0x80
        JC      ??halUart1RxIsr_1
        CLR     A
        MOVX    @DPTR,A
??halUart1RxIsr_1:
        INC     DPTR
        MOV     A,#-0x3a
        MOVX    @DPTR,A
        MOV     DPTR,#isrCfg + 129
        MOVX    A,@DPTR
        CLR     C
        SUBB    A,#0x1d
        JC      ??halUart1RxIsr_2
        ; Setup parameters for call to function halProcessUartInterrupt
        LCALL   `??halProcessUartInterrupt::?relay`; Banked call to: halProcessUartInterrupt
??halUart1RxIsr_2:
        MOV     R7,#0x1
        LJMP    ?INTERRUPT_LEAVE_XSP
          CFI EndBlock cfiBlock5
        REQUIRE U1DBUF
        REQUIRE ST0

        RSEG NEAR_CODE:CODE:NOROOT(0)
// __near_func __xdata_reentrant __interrupt void halUart1TxIsr(void)
halUart1TxIsr:
          CFI Block cfiBlock6 Using cfiCommon1
          CFI Function halUart1TxIsr
        CODE
        PUSH    A
          CFI A Frame(CFA_SP, 3)
          CFI CFA_SP SP+-3
        PUSH    PSW
          CFI PSW Frame(CFA_SP, 4)
          CFI CFA_SP SP+-4
        MOV     A,R0
          CFI R0 A
        PUSH    A
          CFI R0 Frame(CFA_SP, 5)
          CFI CFA_SP SP+-5
        MOV     A,R1
          CFI R1 A
        PUSH    A
          CFI R1 Frame(CFA_SP, 6)
          CFI CFA_SP SP+-6
        PUSH    DPL
          CFI DPL0 Frame(CFA_SP, 7)
          CFI CFA_SP SP+-7
        PUSH    DPH
          CFI DPH0 Frame(CFA_SP, 8)
          CFI CFA_SP SP+-8
        ; Saved register size: 6
        ; Auto size: 0
        MOV     DPTR,#isrCfg + 260
        MOVX    A,@DPTR
        MOV     R0,A
        INC     DPTR
        MOVX    A,@DPTR
        XRL     A,R0
        JNZ     ??halUart1TxIsr_0
        ANL     0x9a,#0xf7
        INC     DPTR
        MOV     A,#0x1
        SJMP    ??halUart1TxIsr_1
??halUart1TxIsr_0:
        CLR     0xe8.2
        MOV     DPTR,#isrCfg + 260
        MOVX    A,@DPTR
        MOV     R0,A
        MOV     A,#0x1
        ADD     A,R0
        MOVX    @DPTR,A
        MOV     A,#(isrCfg + 132) & 0xff
        ADD     A,R0
        MOV     DPL,A
        CLR     A
        ADDC    A,#((isrCfg + 132) >> 8) & 0xff
        MOV     DPH,A
        MOVX    A,@DPTR
        MOV     0xf9,A
        MOV     DPTR,#isrCfg + 260
        MOVX    A,@DPTR
        CLR     C
        SUBB    A,#-0x80
        JC      ??halUart1TxIsr_2
        CLR     A
??halUart1TxIsr_1:
        MOVX    @DPTR,A
??halUart1TxIsr_2:
        POP     DPH
          CFI DPH0 SameValue
          CFI CFA_SP SP+-7
        POP     DPL
          CFI DPL0 SameValue
          CFI CFA_SP SP+-6
        POP     A
          CFI R1 A
          CFI CFA_SP SP+-5
        MOV     R1,A
          CFI R1 SameValue
        POP     A
          CFI R0 A
          CFI CFA_SP SP+-4
        MOV     R0,A
          CFI R0 SameValue
        POP     PSW
          CFI PSW SameValue
          CFI CFA_SP SP+-3
        POP     A
          CFI A SameValue
          CFI CFA_SP SP+-2
        RETI
          CFI EndBlock cfiBlock6
        REQUIRE IEN2
        REQUIRE _A_IRCON2
        REQUIRE U1DBUF
//   92 #endif
//   93 #if HAL_UART_USB
//   94 #include "_hal_uart_usb.c"
//   95 #endif
//   96 
//   97 /******************************************************************************
//   98  * @fn      HalUARTInit
//   99  *
//  100  * @brief   Initialize the UART
//  101  *
//  102  * @param   none
//  103  *
//  104  * @return  none
//  105  *****************************************************************************/

        RSEG BANKED_CODE:HUGECODE:NOROOT(0)
//  106 void HalUARTInit(void)
HalUARTInit:
          CFI Block cfiBlock7 Using cfiCommon0
          CFI Function HalUARTInit
        CODE
//  107 {
        PUSH    DPL
          CFI DPL0 Frame(CFA_SP, 4)
          CFI CFA_SP SP+-4
        PUSH    DPH
          CFI DPH0 Frame(CFA_SP, 5)
          CFI CFA_SP SP+-5
        ; Saved register size: 2
        ; Auto size: 0
//  108   /*
//  109 #if HAL_UART_DMA
//  110   HalUARTInitDMA();
//  111 #endif
//  112   */
//  113 //#if HAL_UART_ISR
//  114  // HalUARTInitISR();
//  115   
//  116   
//  117     CLKCONCMD =0x00;                                                            //Podesavanje clocka na 32MHz
        MOV     0xc6,#0x0
//  118     P2INP = 0x60;
        MOV     0xf7,#0x60
//  119   /*
//  120     PERCFG = 0x02;
//  121     //PERCFG = 0x00;                                                              //Podesavanje primarnih funkcija modula 
//  122     P0SEL = 0x0C;                                                               //Podesavanje osnovne ili periferne funkcije odredjenog pina(0-osnovna ; 1-periferna)
//  123     
//  124   
//  125     U0CSR = 0xC0;                                                               //Prvi bit 1 je UART mode
//  126     U0GCR = 0x08;                                                               //Poslednjih 5 bita odredjuje baud rate exponent vrijednost
//  127  
//  128     
//  129     U0BAUD = 0x3A;  
//  130   */
//  131  // halUARTCfg_t uartConfig;
//  132 	
//  133   // initialize structure for uart config
//  134   
//  135   //P2INP = 0x40;
//  136   //CLKCONCMD =0x00; 
//  137 
//  138   uartConfig.configured = TRUE;
        MOV     DPTR,#uartConfig
        MOV     A,#0x1
        MOVX    @DPTR,A
//  139   uartConfig.baudRate = HAL_UART_BR_9600;
        INC     DPTR
        CLR     A
        MOVX    @DPTR,A
//  140   uartConfig.flowControl = FALSE;
        INC     DPTR
        MOVX    @DPTR,A
//  141   
//  142   uartConfig.idleTimeout = HAL_UART_ISR_IDLE;
        MOV     DPTR,#uartConfig + 5
        MOV     A,#-0x3a
        MOVX    @DPTR,A
//  143   uartConfig.intEnable = TRUE;
        MOV     DPTR,#uartConfig + 22
        MOV     A,#0x1
        MOVX    @DPTR,A
//  144   uartConfig.callBackFunc = NULL;
        MOV     DPTR,#uartConfig + 27
        CLR     A
        MOVX    @DPTR,A
        INC     DPTR
        MOVX    @DPTR,A
//  145 	
//  146   //config tx options
//  147   uartConfig.tx.maxBufSize = HAL_UART_ISR_TX_MAX;
        MOV     DPTR,#uartConfig + 18
        MOV     A,#-0x80
        MOVX    @DPTR,A
        INC     DPTR
        CLR     A
        MOVX    @DPTR,A
//  148   uartConfig.tx.pBuffer = TX_BUFFER;
        INC     DPTR
        MOV     A,#TX_BUFFER & 0xff
        MOVX    @DPTR,A
        INC     DPTR
        MOV     A,#(TX_BUFFER >> 8) & 0xff
        MOVX    @DPTR,A
//  149   
//  150   //config rx options
//  151   uartConfig.rx.maxBufSize = HAL_UART_ISR_RX_MAX;
        MOV     DPTR,#uartConfig + 10
        MOV     A,#-0x80
        MOVX    @DPTR,A
        INC     DPTR
        CLR     A
        MOVX    @DPTR,A
//  152   uartConfig.rx.pBuffer = RX_BUFFER;
        INC     DPTR
        MOV     A,#RX_BUFFER & 0xff
        MOVX    @DPTR,A
        INC     DPTR
        MOV     A,#(RX_BUFFER >> 8) & 0xff
        MOVX    @DPTR,A
//  153   
//  154     HalUARTInitISR();
        ANL     0xff,#0x3f
        MOV     0xff,0xff
        ORL     0xf1,#0x2
        ORL     0xf4,#0xc0
        ANL     0xf2,#0x3f
        MOV     0xf8,#-0x80
        MOV     0xfb,#-0x80
//  155 
//  156   
//  157 //#endif
//  158   /*
//  159 #if HAL_UART_USB
//  160   HalUARTInitUSB();
//  161 #endif
//  162   */
//  163 }
        LJMP    ?Subroutine1 & 0xFFFF
          CFI EndBlock cfiBlock7
        REQUIRE CLKCONCMD
        REQUIRE P2INP
        REQUIRE P2DIR
        REQUIRE PERCFG
        REQUIRE P1SEL
        REQUIRE ADCCFG
        REQUIRE _A_U1CSR
        REQUIRE U1UCR
//  164 
//  165 /******************************************************************************
//  166  * @fn      HalUARTOpen
//  167  *
//  168  * @brief   Open a port according tp the configuration specified by parameter.
//  169  *
//  170  * @param   port   - UART port
//  171  *          config - contains configuration information
//  172  *
//  173  * @return  Status of the function call
//  174  *****************************************************************************/

        RSEG BANKED_CODE:HUGECODE:NOROOT(0)
//  175 uint8 HalUARTOpen(uint8 port, halUARTCfg_t *config)
HalUARTOpen:
          CFI Block cfiBlock8 Using cfiCommon0
          CFI Function HalUARTOpen
        CODE
//  176 {
        PUSH    DPL
          CFI DPL0 Frame(CFA_SP, 4)
          CFI CFA_SP SP+-4
        PUSH    DPH
          CFI DPH0 Frame(CFA_SP, 5)
          CFI CFA_SP SP+-5
        ; Saved register size: 2
        ; Auto size: 0
        MOV     A,R1
        MOV     R4,A
//  177   (void)port;
//  178   (void)config;
//  179 /*
//  180 #if (HAL_UART_DMA == 1)
//  181   if (port == HAL_UART_PORT_0)  HalUARTOpenDMA(config);
//  182 #endif
//  183 #if (HAL_UART_DMA == 2)
//  184   if (port == HAL_UART_PORT_1)  HalUARTOpenDMA(config);
//  185 #endif
//  186   
//  187 #if (HAL_UART_ISR == 1)
//  188   if (port == HAL_UART_PORT_0)  HalUARTOpenISR(config);
//  189 #endif
//  190   
//  191   */
//  192 #if (HAL_UART_ISR == 2)
//  193   if (port == HAL_UART_PORT_1)  HalUARTOpenISR(config);
        MOV     A,#0x1
        XRL     A,R4
        JNZ     ??HalUARTOpen_0
        MOV     A,R2
        ADD     A,#0x1b
        MOV     DPL,A
        CLR     A
        ADDC    A,R3
        MOV     DPH,A
        MOVX    A,@DPTR
        MOV     R0,A
        INC     DPTR
        MOVX    A,@DPTR
        MOV     R1,A
        MOV     DPTR,#isrCfg + 263
        MOV     A,R0
        MOVX    @DPTR,A
        INC     DPTR
        MOV     A,R1
        MOVX    @DPTR,A
        MOV     DPL,R2
        MOV     DPH,R3
        INC     DPTR
        MOVX    A,@DPTR
        XRL     A,#0x3
        JZ      ??HalUARTOpen_1
        MOV     DPL,R2
        MOV     DPH,R3
        INC     DPTR
        MOVX    A,@DPTR
        XRL     A,#0x4
        JZ      ??HalUARTOpen_1
        MOV     0xfa,#0x3b
        SJMP    ??HalUARTOpen_2
??HalUARTOpen_1:
        MOV     0xfa,#-0x28
??HalUARTOpen_2:
        MOV     DPL,R2
        MOV     DPH,R3
        INC     DPTR
        MOVX    A,@DPTR
        JZ      ??HalUARTOpen_3
        DEC     A
        JZ      ??HalUARTOpen_4
        DEC     A
        JZ      ??HalUARTOpen_5
        DEC     A
        JNZ     ??HalUARTOpen_6
??HalUARTOpen_5:
        MOV     0xfc,#0xa
        SJMP    ??HalUARTOpen_7
??HalUARTOpen_4:
        MOV     0xfc,#0x9
        SJMP    ??HalUARTOpen_7
??HalUARTOpen_3:
        MOV     0xfc,#0x8
        SJMP    ??HalUARTOpen_7
??HalUARTOpen_6:
        MOV     0xfc,#0xb
??HalUARTOpen_7:
        MOV     DPL,R2
        MOV     DPH,R3
        INC     DPTR
        INC     DPTR
        MOVX    A,@DPTR
        JZ      ??HalUARTOpen_8
        MOV     0xfb,#0x42
        ORL     0xf4,#0x30
        SJMP    ??HalUARTOpen_9
??HalUARTOpen_8:
        MOV     0xfb,#0x2
??HalUARTOpen_9:
        SETB    0xf8.6
        SETB    0xa8.3
        SETB    0xe8.2
//  194 #endif
//  195   /*
//  196 #if (HAL_UART_USB)
//  197   HalUARTOpenUSB(config);
//  198 #endif
//  199   */
//  200   return HAL_UART_SUCCESS;
??HalUARTOpen_0:
        MOV     R1,#0x0
        SJMP    ?Subroutine1
          CFI EndBlock cfiBlock8
        REQUIRE U1BAUD
        REQUIRE U1GCR
        REQUIRE U1UCR
        REQUIRE P1SEL
        REQUIRE _A_U1CSR
        REQUIRE _A_IEN0
        REQUIRE _A_IRCON2
//  201 }
//  202 
//  203 /*****************************************************************************
//  204  * @fn      HalUARTRead
//  205  *
//  206  * @brief   Read a buffer from the UART
//  207  *
//  208  * @param   port - USART module designation
//  209  *          buf  - valid data buffer at least 'len' bytes in size
//  210  *          len  - max length number of bytes to copy to 'buf'
//  211  *
//  212  * @return  length of buffer that was read
//  213  *****************************************************************************/

        RSEG BANKED_CODE:HUGECODE:NOROOT(0)
//  214 uint16 HalUARTRead(uint8 port, uint8 *buf, uint16 len)
HalUARTRead:
          CFI Block cfiBlock9 Using cfiCommon0
          CFI Function HalUARTRead
        CODE
//  215 {
        FUNCALL HalUARTRead, HalUARTReadISR
        LOCFRAME ISTACK, 0, STACK
        LOCFRAME PSTACK, 0, STACK
        LOCFRAME XSTACK, 9, STACK
        LOCFRAME IOVERLAY, 0, STATIC
        LOCFRAME DOVERLAY, 0, STATIC
        ARGFRAME ISTACK, 0, STACK
        ARGFRAME PSTACK, 0, STACK
        ARGFRAME XSTACK, 9, STACK
        ARGFRAME IOVERLAY, 0, STATIC
        ARGFRAME DOVERLAY, 0, STATIC
        MOV     A,#-0x9
        LCALL   ?BANKED_ENTER_XDATA
          CFI DPH0 load(1, XDATA, add(CFA_XSP16, literal(-1)))
          CFI DPL0 load(1, XDATA, add(CFA_XSP16, literal(-2)))
          CFI ?BRET_EXT load(1, XDATA, add(CFA_XSP16, literal(-3)))
          CFI ?RET_HIGH load(1, XDATA, add(CFA_XSP16, literal(-4)))
          CFI ?RET_LOW load(1, XDATA, add(CFA_XSP16, literal(-5)))
          CFI R7 load(1, XDATA, add(CFA_XSP16, literal(-6)))
          CFI V0 load(1, XDATA, add(CFA_XSP16, literal(-7)))
          CFI VB load(1, XDATA, add(CFA_XSP16, literal(-8)))
          CFI R6 load(1, XDATA, add(CFA_XSP16, literal(-9)))
          CFI CFA_SP SP+0
          CFI CFA_XSP16 add(XSP16, 9)
        ; Saved register size: 9
        ; Auto size: 0
        MOV     A,R1
        MOV     R6,A
//  216   (void)port;
//  217   (void)buf;
//  218   (void)len;
//  219 
//  220 #if (HAL_UART_DMA == 1)
//  221   if (port == HAL_UART_PORT_0)  return HalUARTReadDMA(buf, len);
//  222 #endif
//  223 #if (HAL_UART_DMA == 2)
//  224   if (port == HAL_UART_PORT_1)  return HalUARTReadDMA(buf, len);
//  225 #endif
//  226   
//  227 #if (HAL_UART_ISR == 1)
//  228   if (port == HAL_UART_PORT_0)  return HalUARTReadISR(buf, len);
//  229 #endif
//  230   
//  231   
//  232 #if (HAL_UART_ISR == 2)
//  233   if (port == HAL_UART_PORT_1)  return HalUARTReadISR(buf, len);
        MOV     A,#0x1
        XRL     A,R6
        JNZ     ??HalUARTRead_0
        ; Setup parameters for call to function HalUARTReadISR
        LCALL   `??HalUARTReadISR::?relay`; Banked call to: HalUARTReadISR
        SJMP    ??HalUARTRead_1
//  234 #endif
//  235 
//  236 #if HAL_UART_USB
//  237   return HalUARTRx(buf, len);
//  238 #else
//  239   
//  240 #endif
//  241 
//  242   return 0;
??HalUARTRead_0:
        MOV     R2,#0x0
        MOV     R3,#0x0
??HalUARTRead_1:
          CFI EndBlock cfiBlock9
        REQUIRE ?Subroutine0
        ; // Fall through to label ?Subroutine0
//  243 }

        RSEG BANKED_CODE:HUGECODE:NOROOT(0)
?Subroutine0:
          CFI Block cfiBlock10 Using cfiCommon0
          CFI NoFunction
          CFI CFA_SP SP+0
          CFI CFA_XSP16 add(XSP16, 9)
          CFI VB load(1, XDATA, add(CFA_XSP16, literal(-8)))
          CFI DPL0 load(1, XDATA, add(CFA_XSP16, literal(-2)))
          CFI DPH0 load(1, XDATA, add(CFA_XSP16, literal(-1)))
          CFI R6 load(1, XDATA, add(CFA_XSP16, literal(-9)))
          CFI R7 load(1, XDATA, add(CFA_XSP16, literal(-6)))
          CFI V0 load(1, XDATA, add(CFA_XSP16, literal(-7)))
          CFI ?BRET_EXT load(1, XDATA, add(CFA_XSP16, literal(-3)))
          CFI ?RET_HIGH load(1, XDATA, add(CFA_XSP16, literal(-4)))
          CFI ?RET_LOW load(1, XDATA, add(CFA_XSP16, literal(-5)))
        MOV     R7,#0x1
        LJMP    ?BANKED_LEAVE_XDATA
          CFI EndBlock cfiBlock10
//  244 
//  245 /******************************************************************************
//  246  * @fn      HalUARTWrite
//  247  *
//  248  * @brief   Write a buffer to the UART.
//  249  *
//  250  * @param   port - UART port
//  251  *          buf  - pointer to the buffer that will be written, not freed
//  252  *          len  - length of
//  253  *
//  254  * @return  length of the buffer that was sent
//  255  *****************************************************************************/

        RSEG BANKED_CODE:HUGECODE:NOROOT(0)
//  256 uint16 HalUARTWrite(uint8 port, uint8 *buf, uint16 len)
HalUARTWrite:
          CFI Block cfiBlock11 Using cfiCommon0
          CFI Function HalUARTWrite
        CODE
//  257 {
        FUNCALL HalUARTWrite, HalUARTWriteISR
        LOCFRAME ISTACK, 0, STACK
        LOCFRAME PSTACK, 0, STACK
        LOCFRAME XSTACK, 9, STACK
        LOCFRAME IOVERLAY, 0, STATIC
        LOCFRAME DOVERLAY, 0, STATIC
        ARGFRAME ISTACK, 0, STACK
        ARGFRAME PSTACK, 0, STACK
        ARGFRAME XSTACK, 9, STACK
        ARGFRAME IOVERLAY, 0, STATIC
        ARGFRAME DOVERLAY, 0, STATIC
        MOV     A,#-0x9
        LCALL   ?BANKED_ENTER_XDATA
          CFI DPH0 load(1, XDATA, add(CFA_XSP16, literal(-1)))
          CFI DPL0 load(1, XDATA, add(CFA_XSP16, literal(-2)))
          CFI ?BRET_EXT load(1, XDATA, add(CFA_XSP16, literal(-3)))
          CFI ?RET_HIGH load(1, XDATA, add(CFA_XSP16, literal(-4)))
          CFI ?RET_LOW load(1, XDATA, add(CFA_XSP16, literal(-5)))
          CFI R7 load(1, XDATA, add(CFA_XSP16, literal(-6)))
          CFI V0 load(1, XDATA, add(CFA_XSP16, literal(-7)))
          CFI VB load(1, XDATA, add(CFA_XSP16, literal(-8)))
          CFI R6 load(1, XDATA, add(CFA_XSP16, literal(-9)))
          CFI CFA_SP SP+0
          CFI CFA_XSP16 add(XSP16, 9)
        ; Saved register size: 9
        ; Auto size: 0
        MOV     A,R1
        MOV     R6,A
//  258   (void)port;
//  259   (void)buf;
//  260   (void)len;
//  261 /*  uint8 i;
//  262   
//  263   for(i=0;i<len;i++)
//  264   {
//  265    U0DBUF = *(buf + i);
//  266     
//  267     while((U0CSR & 0x01) == 0x01)
//  268     {
//  269     }
//  270   }
//  271  */
//  272       /*
//  273 #if (HAL_UART_DMA == 1)
//  274   if (port == HAL_UART_PORT_0)  return HalUARTWriteDMA(buf, len);
//  275 #endif
//  276 #if (HAL_UART_DMA == 2)
//  277   if (port == HAL_UART_PORT_1)  return HalUARTWriteDMA(buf, len);
//  278 #endif
//  279 
//  280 #if (HAL_UART_ISR == 1)
//  281   if (port == HAL_UART_PORT_0)  return HalUARTWriteISR(buf, len);
//  282 #endif
//  283 
//  284 */
//  285 #if (HAL_UART_ISR == 2)
//  286   
//  287   if (port == HAL_UART_PORT_1) 
        MOV     A,#0x1
        XRL     A,R6
        JNZ     ??HalUARTWrite_0
//  288   {
//  289    // HalLcdWriteString("Sico----------------------",0);
//  290     return HalUARTWriteISR(buf, len);
        ; Setup parameters for call to function HalUARTWriteISR
        LCALL   `??HalUARTWriteISR::?relay`; Banked call to: HalUARTWriteISR
        SJMP    ??HalUARTWrite_1
//  291   }
//  292   //return HalUARTWriteISR(buf, len);
//  293 #endif
//  294 
//  295 /*#if HAL_UART_USB
//  296   HalUARTTx(buf, len);
//  297   return len;
//  298 #else
//  299   return 0;
//  300 #endif
//  301 */
//  302   return 0;
??HalUARTWrite_0:
        MOV     R2,#0x0
        MOV     R3,#0x0
??HalUARTWrite_1:
        SJMP    ?Subroutine0
//  303 }
          CFI EndBlock cfiBlock11
//  304 
//  305 /******************************************************************************
//  306  * @fn      HalUARTSuspend
//  307  *
//  308  * @brief   Suspend UART hardware before entering PM mode 1, 2 or 3.
//  309  *
//  310  * @param   None
//  311  *
//  312  * @return  None
//  313  *****************************************************************************/

        RSEG BANKED_CODE:HUGECODE:NOROOT(0)
//  314 void HalUARTSuspend( void )
HalUARTSuspend:
          CFI Block cfiBlock12 Using cfiCommon0
          CFI Function HalUARTSuspend
        CODE
//  315 {
        ; Saved register size: 0
        ; Auto size: 0
//  316   
//  317   /*
//  318 #if HAL_UART_DMA
//  319   HalUARTSuspendDMA();
//  320 #endif
//  321 #if HAL_UART_ISR
//  322   HalUARTSuspendISR();
//  323 #endif
//  324 */
//  325 }
        LJMP    ?BRET
          CFI EndBlock cfiBlock12
//  326 
//  327 /******************************************************************************
//  328  * @fn      HalUARTResume
//  329  *
//  330  * @brief   Resume UART hardware after exiting PM mode 1, 2 or 3.
//  331  *
//  332  * @param   None
//  333  *
//  334  * @return  None
//  335  *****************************************************************************/

        RSEG BANKED_CODE:HUGECODE:NOROOT(0)
//  336 void HalUARTResume( void )
HalUARTResume:
          CFI Block cfiBlock13 Using cfiCommon0
          CFI Function HalUARTResume
        CODE
//  337 {
        ; Saved register size: 0
        ; Auto size: 0
//  338   
//  339   /*
//  340 #if HAL_UART_DMA
//  341   HalUARTResumeDMA();
//  342 #endif
//  343 #if HAL_UART_ISR
//  344   HalUARTResumeISR();
//  345 #endif
//  346   */
//  347 }
        LJMP    ?BRET
          CFI EndBlock cfiBlock13
//  348 
//  349 /***************************************************************************************************
//  350  * @fn      HalUARTPoll
//  351  *
//  352  * @brief   Poll the UART.
//  353  *
//  354  * @param   none
//  355  *
//  356  * @return  none
//  357  *****************************************************************************/

        RSEG BANKED_CODE:HUGECODE:NOROOT(0)
//  358 void HalUARTPoll(void)
HalUARTPoll:
          CFI Block cfiBlock14 Using cfiCommon0
          CFI Function HalUARTPoll
        CODE
//  359 {
        ; Saved register size: 0
        ; Auto size: 0
//  360   /*
//  361 #if HAL_UART_DMA
//  362   HalUARTPollDMA();
//  363 #endif
//  364 #if HAL_UART_ISR
//  365   HalUARTPollISR();
//  366 #endif
//  367 #if HAL_UART_USB
//  368   HalUARTPollUSB();
//  369 #endif
//  370   */
//  371 }
        LJMP    ?BRET
          CFI EndBlock cfiBlock14
//  372 
//  373 /**************************************************************************************************
//  374  * @fn      Hal_UART_RxBufLen()
//  375  *
//  376  * @brief   Calculate Rx Buffer length - the number of bytes in the buffer.
//  377  *
//  378  * @param   port - UART port
//  379  *
//  380  * @return  length of current Rx Buffer
//  381  **************************************************************************************************/

        RSEG BANKED_CODE:HUGECODE:NOROOT(0)
//  382 uint16 Hal_UART_RxBufLen( uint8 port )
Hal_UART_RxBufLen:
          CFI Block cfiBlock15 Using cfiCommon0
          CFI Function Hal_UART_RxBufLen
        CODE
//  383 {
        PUSH    DPL
          CFI DPL0 Frame(CFA_SP, 4)
          CFI CFA_SP SP+-4
        PUSH    DPH
          CFI DPH0 Frame(CFA_SP, 5)
          CFI CFA_SP SP+-5
        ; Saved register size: 2
        ; Auto size: 0
//  384   (void)port;
//  385 
//  386   
//  387 #if (HAL_UART_DMA == 1)
//  388   if (port == HAL_UART_PORT_0)  return HalUARTRxAvailDMA();
//  389 #endif
//  390 #if (HAL_UART_DMA == 2)
//  391   if (port == HAL_UART_PORT_1)  return HalUARTRxAvailDMA();
//  392 #endif
//  393 #if (HAL_UART_ISR == 1)
//  394   if (port == HAL_UART_PORT_0)  return HalUARTRxAvailISR();
//  395 #endif
//  396 #if (HAL_UART_ISR == 2)
//  397   if (port == HAL_UART_PORT_1)  return HalUARTRxAvailISR();
        MOV     A,#0x1
        XRL     A,R1
        JNZ     ??Hal_UART_RxBufLen_0
        MOV     DPTR,#isrCfg + 129
        MOVX    A,@DPTR
        MOV     R2,A
        MOV     DPTR,#isrCfg + 128
        MOVX    A,@DPTR
        MOV     R0,A
        MOV     A,R2
        CLR     C
        SUBB    A,R0
        MOVX    A,@DPTR
        MOV     R4,A
        JC      ??Hal_UART_RxBufLen_1
        MOV     A,R2
        CLR     C
        SUBB    A,R4
        MOV     R2,A
        SUBB    A,0xE0 /* A   */
        SJMP    ??Hal_UART_RxBufLen_2
??Hal_UART_RxBufLen_1:
        MOV     A,#-0x80
        CLR     C
        SUBB    A,R4
        MOV     R4,A
        SUBB    A,0xE0 /* A   */
        MOV     R5,A
        MOV     A,R4
        ADD     A,R2
        MOV     R2,A
        CLR     A
        ADDC    A,R5
??Hal_UART_RxBufLen_2:
        MOV     R3,A
        SJMP    ??Hal_UART_RxBufLen_3
//  398 #endif
//  399 #if HAL_UART_USB
//  400   return HalUARTRxAvailUSB();
//  401 #else
//  402   return 0;
??Hal_UART_RxBufLen_0:
        MOV     R2,#0x0
        MOV     R3,#0x0
??Hal_UART_RxBufLen_3:
          CFI EndBlock cfiBlock15
        REQUIRE ?Subroutine1
        ; // Fall through to label ?Subroutine1
//  403 #endif
//  404   
//  405   
//  406   //return 0;
//  407 }

        RSEG BANKED_CODE:HUGECODE:NOROOT(0)
?Subroutine1:
          CFI Block cfiBlock16 Using cfiCommon0
          CFI NoFunction
          CFI CFA_SP SP+-5
          CFI DPL0 Frame(CFA_SP, 4)
          CFI DPH0 Frame(CFA_SP, 5)
        POP     DPH
          CFI CFA_SP SP+-4
          CFI DPH0 SameValue
        POP     DPL
          CFI CFA_SP SP+-3
          CFI DPL0 SameValue
        LJMP    ?BRET
          CFI EndBlock cfiBlock16
//  408 ////////////////////////////////////////////////////////////////////////////////////// 
//  409 

        RSEG BANKED_CODE:HUGECODE:NOROOT(0)
//  410 void halProcessUartInterrupt (void)
halProcessUartInterrupt:
          CFI Block cfiBlock17 Using cfiCommon0
          CFI Function halProcessUartInterrupt
        CODE
//  411 {
        FUNCALL halProcessUartInterrupt, osal_set_event
        LOCFRAME ISTACK, 2, STACK
        LOCFRAME PSTACK, 0, STACK
        LOCFRAME XSTACK, 0, STACK
        LOCFRAME IOVERLAY, 0, STATIC
        LOCFRAME DOVERLAY, 0, STATIC
        ARGFRAME ISTACK, 2, STACK
        ARGFRAME PSTACK, 0, STACK
        ARGFRAME XSTACK, 0, STACK
        ARGFRAME IOVERLAY, 0, STATIC
        ARGFRAME DOVERLAY, 0, STATIC
        PUSH    DPL
          CFI DPL0 Frame(CFA_SP, 4)
          CFI CFA_SP SP+-4
        PUSH    DPH
          CFI DPH0 Frame(CFA_SP, 5)
          CFI CFA_SP SP+-5
        ; Saved register size: 2
        ; Auto size: 0
//  412   //osal_set_event(Hal_TaskID, HAL_UART_EVENT);
//  413   //if(MIN_FRAME_SIZE <= HalUARTReadISR(RX_BUFFER, 128))
//  414   /*HalUARTReadISR(RX_BUFFER, 128);
//  415   HalLcdWriteString("--------- SET EVENT -------------",0); 
//  416   osal_set_event(GenericApp_TaskID, RX_PROCCESS_EVENT);*/
//  417 
//  418  // if(HalUARTReadISR(RX_BUFFER, 128))    ////////////////////////////////////////////////////////////////// ovdje treba uporediti sa minimalnom velicinom bafera, definisati MIN_FRAME_SIZE
//  419  // {
//  420     //HalLcdWriteString("--------- SET EVENT -------------",0); 
//  421     /*
//  422     HalLcdWriteString("--------- SET LAZO -------------",0); 
//  423   HalLcdWriteString((char *)RX_BUFFER, 0);
//  424   HalLcdWriteString("--------- SET LAZO -------------",0);
//  425   */
//  426     osal_set_event(GenericApp_TaskID, RX_PROCCESS_EVENT);
        ; Setup parameters for call to function osal_set_event
        MOV     R2,#0x0
        MOV     R3,#0x1
        MOV     DPTR,#GenericApp_TaskID
        MOVX    A,@DPTR
        MOV     R1,A
        LCALL   `??osal_set_event::?relay`; Banked call to: osal_set_event
//  427  // }
//  428 }
        SJMP    ?Subroutine1
          CFI EndBlock cfiBlock17

        COMMON INTVEC:CODE:ROOT(0)
        ORG 27
`??halUart1RxIsr::??INTVEC 27`:
        LJMP       (halUart1RxIsr)

        COMMON INTVEC:CODE:ROOT(0)
        ORG 115
`??halUart1TxIsr::??INTVEC 115`:
        LJMP       (halUart1TxIsr)

        RSEG BANK_RELAYS:CODE:REORDER:NOROOT(0)
`??HalUARTReadISR::?relay`:
        CODE
        LCALL   ?BDISPATCH
        DATA24
        DC24    HalUARTReadISR

        RSEG BANK_RELAYS:CODE:REORDER:NOROOT(0)
`??HalUARTWriteISR::?relay`:
        CODE
        LCALL   ?BDISPATCH
        DATA24
        DC24    HalUARTWriteISR

        RSEG BANK_RELAYS:CODE:REORDER:NOROOT(0)
`??HalUARTInit::?relay`:
        CODE
        LCALL   ?BDISPATCH
        DATA24
        DC24    HalUARTInit

        RSEG BANK_RELAYS:CODE:REORDER:NOROOT(0)
`??HalUARTOpen::?relay`:
        CODE
        LCALL   ?BDISPATCH
        DATA24
        DC24    HalUARTOpen

        RSEG BANK_RELAYS:CODE:REORDER:NOROOT(0)
`??HalUARTRead::?relay`:
        CODE
        LCALL   ?BDISPATCH
        DATA24
        DC24    HalUARTRead

        RSEG BANK_RELAYS:CODE:REORDER:NOROOT(0)
`??HalUARTWrite::?relay`:
        CODE
        LCALL   ?BDISPATCH
        DATA24
        DC24    HalUARTWrite

        RSEG BANK_RELAYS:CODE:REORDER:NOROOT(0)
`??HalUARTSuspend::?relay`:
        CODE
        LCALL   ?BDISPATCH
        DATA24
        DC24    HalUARTSuspend

        RSEG BANK_RELAYS:CODE:REORDER:NOROOT(0)
`??HalUARTResume::?relay`:
        CODE
        LCALL   ?BDISPATCH
        DATA24
        DC24    HalUARTResume

        RSEG BANK_RELAYS:CODE:REORDER:NOROOT(0)
`??HalUARTPoll::?relay`:
        CODE
        LCALL   ?BDISPATCH
        DATA24
        DC24    HalUARTPoll

        RSEG BANK_RELAYS:CODE:REORDER:NOROOT(0)
`??Hal_UART_RxBufLen::?relay`:
        CODE
        LCALL   ?BDISPATCH
        DATA24
        DC24    Hal_UART_RxBufLen

        RSEG BANK_RELAYS:CODE:REORDER:NOROOT(0)
`??halProcessUartInterrupt::?relay`:
        CODE
        LCALL   ?BDISPATCH
        DATA24
        DC24    halProcessUartInterrupt

        END
//  429 ////////////////////////////////////////////////////////////////////////////////////// 
//  430 /******************************************************************************
//  431 ******************************************************************************/
// 
// 595 bytes in segment BANKED_CODE
//  66 bytes in segment BANK_RELAYS
//   6 bytes in segment INTVEC
// 162 bytes in segment NEAR_CODE
//  15 bytes in segment SFR_AN
// 521 bytes in segment XDATA_Z
// 
// 228 bytes of CODE     memory (+  6 bytes shared)
//   0 bytes of DATA     memory (+ 15 bytes shared)
// 595 bytes of HUGECODE memory
// 521 bytes of XDATA    memory
//
//Errors: none
//Warnings: none
